   1               		.file	"RP6ControlLib.c"
   2               	__SREG__ = 0x3f
   3               	__SP_H__ = 0x3e
   4               	__SP_L__ = 0x3d
   5               	__CCP__  = 0x34
   6               	__tmp_reg__ = 0
   7               	__zero_reg__ = 1
   8               		.global __do_copy_data
   9               		.global __do_clear_bss
  17               	.Ltext0:
  18               	.global	INT0_event_DUMMY
  20               	INT0_event_DUMMY:
  21               	.LFB6:
  22               	.LM1:
  23               	/* prologue: function */
  24               	/* frame size = 0 */
  25               	/* epilogue start */
  26               	.LM2:
  27 0000 0895      		ret
  28               	.LFE6:
  30               	.global	INT0_setEventHandler
  32               	INT0_setEventHandler:
  33               	.LFB7:
  34               	.LM3:
  35               	.LVL0:
  36               	/* prologue: function */
  37               	/* frame size = 0 */
  38               	.LM4:
  39 0002 9093 0000 		sts (INT0_eventHandler)+1,r25
  40 0006 8093 0000 		sts INT0_eventHandler,r24
  41               	/* epilogue start */
  42               	.LM5:
  43 000a 0895      		ret
  44               	.LFE7:
  46               	.global	__vector_1
  48               	__vector_1:
  49               	.LFB8:
  50               	.LM6:
  51 000c 1F92      		push __zero_reg__
  52 000e 0F92      		push r0
  53 0010 0FB6      		in r0,__SREG__
  54 0012 0F92      		push r0
  55 0014 1124      		clr __zero_reg__
  56 0016 2F93      		push r18
  57 0018 3F93      		push r19
  58 001a 4F93      		push r20
  59 001c 5F93      		push r21
  60 001e 6F93      		push r22
  61 0020 7F93      		push r23
  62 0022 8F93      		push r24
  63 0024 9F93      		push r25
  64 0026 AF93      		push r26
  65 0028 BF93      		push r27
  66 002a EF93      		push r30
  67 002c FF93      		push r31
  68               	/* prologue: Signal */
  69               	/* frame size = 0 */
  70               	.LM7:
  71 002e E091 0000 		lds r30,INT0_eventHandler
  72 0032 F091 0000 		lds r31,(INT0_eventHandler)+1
  73 0036 0995      		icall
  74               	/* epilogue start */
  75               	.LM8:
  76 0038 FF91      		pop r31
  77 003a EF91      		pop r30
  78 003c BF91      		pop r27
  79 003e AF91      		pop r26
  80 0040 9F91      		pop r25
  81 0042 8F91      		pop r24
  82 0044 7F91      		pop r23
  83 0046 6F91      		pop r22
  84 0048 5F91      		pop r21
  85 004a 4F91      		pop r20
  86 004c 3F91      		pop r19
  87 004e 2F91      		pop r18
  88 0050 0F90      		pop r0
  89 0052 0FBE      		out __SREG__,r0
  90 0054 0F90      		pop r0
  91 0056 1F90      		pop __zero_reg__
  92 0058 1895      		reti
  93               	.LFE8:
  95               	.global	INT1_event_DUMMY
  97               	INT1_event_DUMMY:
  98               	.LFB9:
  99               	.LM9:
 100               	/* prologue: function */
 101               	/* frame size = 0 */
 102               	/* epilogue start */
 103               	.LM10:
 104 005a 0895      		ret
 105               	.LFE9:
 107               	.global	INT1_setEventHandler
 109               	INT1_setEventHandler:
 110               	.LFB10:
 111               	.LM11:
 112               	.LVL1:
 113               	/* prologue: function */
 114               	/* frame size = 0 */
 115               	.LM12:
 116 005c 9093 0000 		sts (INT1_eventHandler)+1,r25
 117 0060 8093 0000 		sts INT1_eventHandler,r24
 118               	/* epilogue start */
 119               	.LM13:
 120 0064 0895      		ret
 121               	.LFE10:
 123               	.global	__vector_2
 125               	__vector_2:
 126               	.LFB11:
 127               	.LM14:
 128 0066 1F92      		push __zero_reg__
 129 0068 0F92      		push r0
 130 006a 0FB6      		in r0,__SREG__
 131 006c 0F92      		push r0
 132 006e 1124      		clr __zero_reg__
 133 0070 2F93      		push r18
 134 0072 3F93      		push r19
 135 0074 4F93      		push r20
 136 0076 5F93      		push r21
 137 0078 6F93      		push r22
 138 007a 7F93      		push r23
 139 007c 8F93      		push r24
 140 007e 9F93      		push r25
 141 0080 AF93      		push r26
 142 0082 BF93      		push r27
 143 0084 EF93      		push r30
 144 0086 FF93      		push r31
 145               	/* prologue: Signal */
 146               	/* frame size = 0 */
 147               	.LM15:
 148 0088 E091 0000 		lds r30,INT1_eventHandler
 149 008c F091 0000 		lds r31,(INT1_eventHandler)+1
 150 0090 0995      		icall
 151               	/* epilogue start */
 152               	.LM16:
 153 0092 FF91      		pop r31
 154 0094 EF91      		pop r30
 155 0096 BF91      		pop r27
 156 0098 AF91      		pop r26
 157 009a 9F91      		pop r25
 158 009c 8F91      		pop r24
 159 009e 7F91      		pop r23
 160 00a0 6F91      		pop r22
 161 00a2 5F91      		pop r21
 162 00a4 4F91      		pop r20
 163 00a6 3F91      		pop r19
 164 00a8 2F91      		pop r18
 165 00aa 0F90      		pop r0
 166 00ac 0FBE      		out __SREG__,r0
 167 00ae 0F90      		pop r0
 168 00b0 1F90      		pop __zero_reg__
 169 00b2 1895      		reti
 170               	.LFE11:
 172               	.global	INT2_event_DUMMY
 174               	INT2_event_DUMMY:
 175               	.LFB12:
 176               	.LM17:
 177               	/* prologue: function */
 178               	/* frame size = 0 */
 179               	/* epilogue start */
 180               	.LM18:
 181 00b4 0895      		ret
 182               	.LFE12:
 184               	.global	INT2_setEventHandler
 186               	INT2_setEventHandler:
 187               	.LFB13:
 188               	.LM19:
 189               	.LVL2:
 190               	/* prologue: function */
 191               	/* frame size = 0 */
 192               	.LM20:
 193 00b6 9093 0000 		sts (INT2_eventHandler)+1,r25
 194 00ba 8093 0000 		sts INT2_eventHandler,r24
 195               	/* epilogue start */
 196               	.LM21:
 197 00be 0895      		ret
 198               	.LFE13:
 200               	.global	__vector_3
 202               	__vector_3:
 203               	.LFB14:
 204               	.LM22:
 205 00c0 1F92      		push __zero_reg__
 206 00c2 0F92      		push r0
 207 00c4 0FB6      		in r0,__SREG__
 208 00c6 0F92      		push r0
 209 00c8 1124      		clr __zero_reg__
 210 00ca 2F93      		push r18
 211 00cc 3F93      		push r19
 212 00ce 4F93      		push r20
 213 00d0 5F93      		push r21
 214 00d2 6F93      		push r22
 215 00d4 7F93      		push r23
 216 00d6 8F93      		push r24
 217 00d8 9F93      		push r25
 218 00da AF93      		push r26
 219 00dc BF93      		push r27
 220 00de EF93      		push r30
 221 00e0 FF93      		push r31
 222               	/* prologue: Signal */
 223               	/* frame size = 0 */
 224               	.LM23:
 225 00e2 E091 0000 		lds r30,INT2_eventHandler
 226 00e6 F091 0000 		lds r31,(INT2_eventHandler)+1
 227 00ea 0995      		icall
 228               	/* epilogue start */
 229               	.LM24:
 230 00ec FF91      		pop r31
 231 00ee EF91      		pop r30
 232 00f0 BF91      		pop r27
 233 00f2 AF91      		pop r26
 234 00f4 9F91      		pop r25
 235 00f6 8F91      		pop r24
 236 00f8 7F91      		pop r23
 237 00fa 6F91      		pop r22
 238 00fc 5F91      		pop r21
 239 00fe 4F91      		pop r20
 240 0100 3F91      		pop r19
 241 0102 2F91      		pop r18
 242 0104 0F90      		pop r0
 243 0106 0FBE      		out __SREG__,r0
 244 0108 0F90      		pop r0
 245 010a 1F90      		pop __zero_reg__
 246 010c 1895      		reti
 247               	.LFE14:
 249               	.global	readADC
 251               	readADC:
 252               	.LFB15:
 253               	.LM25:
 254               	.LVL3:
 255               	/* prologue: function */
 256               	/* frame size = 0 */
 257               	.LM26:
 258 010e 369B      		sbis 38-32,6
 259 0110 00C0      		rjmp .L20
 260 0112 20E0      		ldi r18,lo8(0)
 261 0114 30E0      		ldi r19,hi8(0)
 262 0116 00C0      		rjmp .L21
 263               	.L20:
 264               	.LM27:
 265 0118 8064      		ori r24,lo8(64)
 266               	.LVL4:
 267 011a 87B9      		out 39-32,r24
 268               	.LM28:
 269 011c 86ED      		ldi r24,lo8(-42)
 270               	.LVL5:
 271 011e 86B9      		out 38-32,r24
 272               	.L22:
 273               	.LM29:
 274 0120 3699      		sbic 38-32,6
 275 0122 00C0      		rjmp .L22
 276               	.LM30:
 277 0124 349A      		sbi 38-32,4
 278               	.LM31:
 279 0126 24B1      		in r18,36-32
 280 0128 35B1      		in r19,(36)+1-32
 281               	.LVL6:
 282               	.L21:
 283               	.LM32:
 284 012a C901      		movw r24,r18
 285               	.LVL7:
 286               	/* epilogue start */
 287 012c 0895      		ret
 288               	.LFE15:
 290               	.global	writeSPI
 292               	writeSPI:
 293               	.LFB16:
 294               	.LM33:
 295               	.LVL8:
 296               	/* prologue: function */
 297               	/* frame size = 0 */
 298               	.LM34:
 299 012e 8FB9      		out 47-32,r24
 300               	.L26:
 301               	.LM35:
 302 0130 779B      		sbis 46-32,7
 303 0132 00C0      		rjmp .L26
 304               	/* epilogue start */
 305               	.LM36:
 306 0134 0895      		ret
 307               	.LFE16:
 309               	.global	readSPI
 311               	readSPI:
 312               	.LFB17:
 313               	.LM37:
 314               	/* prologue: function */
 315               	/* frame size = 0 */
 316               	.LBB148:
 317               	.LBB149:
 318               	.LM38:
 319 0136 8FEF      		ldi r24,lo8(-1)
 320 0138 8FB9      		out 47-32,r24
 321               	.L30:
 322               	.LM39:
 323 013a 779B      		sbis 46-32,7
 324 013c 00C0      		rjmp .L30
 325               	.LBE149:
 326               	.LBE148:
 327               	.LM40:
 328 013e 8FB1      		in r24,47-32
 329               	/* epilogue start */
 330               	.LM41:
 331 0140 0895      		ret
 332               	.LFE17:
 334               	.global	readWordSPI
 336               	readWordSPI:
 337               	.LFB18:
 338               	.LM42:
 339               	/* prologue: function */
 340               	/* frame size = 0 */
 341               	.LBB150:
 342               	.LBB151:
 343               	.LBB152:
 344               	.LBB153:
 345               	.LM43:
 346 0142 8FEF      		ldi r24,lo8(-1)
 347 0144 8FB9      		out 47-32,r24
 348               	.L34:
 349               	.LM44:
 350 0146 779B      		sbis 46-32,7
 351 0148 00C0      		rjmp .L34
 352               	.LBE153:
 353               	.LBE152:
 354               	.LM45:
 355 014a 3FB1      		in r19,47-32
 356               	.LBE151:
 357               	.LBE150:
 358               	.LBB154:
 359               	.LBB155:
 360               	.LBB156:
 361               	.LBB157:
 362               	.LM46:
 363 014c 8FEF      		ldi r24,lo8(-1)
 364 014e 8FB9      		out 47-32,r24
 365               	.L35:
 366               	.LM47:
 367 0150 779B      		sbis 46-32,7
 368 0152 00C0      		rjmp .L35
 369               	.LBE157:
 370               	.LBE156:
 371               	.LM48:
 372 0154 2FB1      		in r18,47-32
 373               	.LBE155:
 374               	.LBE154:
 375               	.LM49:
 376 0156 932F      		mov r25,r19
 377               	.LVL9:
 378 0158 80E0      		ldi r24,lo8(0)
 379               	.LVL10:
 380 015a 30E0      		ldi r19,lo8(0)
 381 015c 282B      		or r18,r24
 382 015e 392B      		or r19,r25
 383               	.LM50:
 384 0160 C901      		movw r24,r18
 385               	.LVL11:
 386               	/* epilogue start */
 387 0162 0895      		ret
 388               	.LFE18:
 390               	.global	writeWordSPI
 392               	writeWordSPI:
 393               	.LFB19:
 394               	.LM51:
 395               	.LVL12:
 396               	/* prologue: function */
 397               	/* frame size = 0 */
 398               	.LBB158:
 399               	.LBB159:
 400               	.LM52:
 401 0164 9FB9      		out 47-32,r25
 402               	.LVL13:
 403               	.L40:
 404               	.LM53:
 405 0166 779B      		sbis 46-32,7
 406 0168 00C0      		rjmp .L40
 407               	.LBE159:
 408               	.LBE158:
 409               	.LBB160:
 410               	.LBB161:
 411               	.LM54:
 412 016a 8FB9      		out 47-32,r24
 413               	.L41:
 414               	.LM55:
 415 016c 779B      		sbis 46-32,7
 416 016e 00C0      		rjmp .L41
 417               	/* epilogue start */
 418               	.LBE161:
 419               	.LBE160:
 420               	.LM56:
 421 0170 0895      		ret
 422               	.LFE19:
 424               	.global	writeBufferSPI
 426               	writeBufferSPI:
 427               	.LFB20:
 428               	.LM57:
 429               	.LVL14:
 430               	/* prologue: function */
 431               	/* frame size = 0 */
 432               	.LM58:
 433 0172 FC01      		movw r30,r24
 434               	.LVL15:
 435 0174 90E0      		ldi r25,lo8(0)
 436               	.LVL16:
 437 0176 00C0      		rjmp .L46
 438               	.L48:
 439               	.LM59:
 440 0178 8081      		ld r24,Z
 441 017a 8FB9      		out 47-32,r24
 442               	.L47:
 443               	.LM60:
 444 017c 779B      		sbis 46-32,7
 445 017e 00C0      		rjmp .L47
 446               	.LM61:
 447 0180 9F5F      		subi r25,lo8(-(1))
 448 0182 3196      		adiw r30,1
 449               	.L46:
 450 0184 9617      		cp r25,r22
 451 0186 00F0      		brlo .L48
 452               	/* epilogue start */
 453               	.LM62:
 454 0188 0895      		ret
 455               	.LFE20:
 457               	.global	readBufferSPI
 459               	readBufferSPI:
 460               	.LFB21:
 461               	.LM63:
 462               	.LVL17:
 463               	/* prologue: function */
 464               	/* frame size = 0 */
 465               	.LM64:
 466 018a FC01      		movw r30,r24
 467               	.LVL18:
 468 018c 90E0      		ldi r25,lo8(0)
 469               	.LVL19:
 470               	.LM65:
 471 018e 2FEF      		ldi r18,lo8(-1)
 472 0190 00C0      		rjmp .L52
 473               	.L54:
 474 0192 2FB9      		out 47-32,r18
 475               	.L53:
 476               	.LM66:
 477 0194 779B      		sbis 46-32,7
 478 0196 00C0      		rjmp .L53
 479               	.LM67:
 480 0198 8FB1      		in r24,47-32
 481 019a 8193      		st Z+,r24
 482               	.LM68:
 483 019c 9F5F      		subi r25,lo8(-(1))
 484               	.L52:
 485 019e 9617      		cp r25,r22
 486 01a0 00F0      		brlo .L54
 487               	/* epilogue start */
 488               	.LM69:
 489 01a2 0895      		ret
 490               	.LFE21:
 492               	.global	SPI_EEPROM_readByte
 494               	SPI_EEPROM_readByte:
 495               	.LFB22:
 496               	.LM70:
 497               	.LVL20:
 498               	/* prologue: function */
 499               	/* frame size = 0 */
 500 01a4 282F      		mov r18,r24
 501               	.LM71:
 502 01a6 C098      		cbi 56-32,0
 503               	.LBB162:
 504               	.LBB163:
 505               	.LM72:
 506 01a8 83E0      		ldi r24,lo8(3)
 507               	.LVL21:
 508 01aa 8FB9      		out 47-32,r24
 509               	.L58:
 510               	.LM73:
 511 01ac 779B      		sbis 46-32,7
 512 01ae 00C0      		rjmp .L58
 513               	.LBE163:
 514               	.LBE162:
 515               	.LBB164:
 516               	.LBB165:
 517               	.LBB166:
 518               	.LBB167:
 519               	.LM74:
 520 01b0 9FB9      		out 47-32,r25
 521               	.LVL22:
 522               	.L59:
 523               	.LM75:
 524 01b2 779B      		sbis 46-32,7
 525 01b4 00C0      		rjmp .L59
 526               	.LBE167:
 527               	.LBE166:
 528               	.LBB168:
 529               	.LBB169:
 530               	.LM76:
 531 01b6 2FB9      		out 47-32,r18
 532               	.L60:
 533               	.LM77:
 534 01b8 779B      		sbis 46-32,7
 535 01ba 00C0      		rjmp .L60
 536               	.LBE169:
 537               	.LBE168:
 538               	.LBE165:
 539               	.LBE164:
 540               	.LBB170:
 541               	.LBB171:
 542               	.LBB172:
 543               	.LBB173:
 544               	.LM78:
 545 01bc 8FEF      		ldi r24,lo8(-1)
 546 01be 8FB9      		out 47-32,r24
 547               	.L61:
 548               	.LM79:
 549 01c0 779B      		sbis 46-32,7
 550 01c2 00C0      		rjmp .L61
 551               	.LBE173:
 552               	.LBE172:
 553               	.LM80:
 554 01c4 8FB1      		in r24,47-32
 555               	.LVL23:
 556               	.LBE171:
 557               	.LBE170:
 558               	.LM81:
 559 01c6 C09A      		sbi 56-32,0
 560               	.LVL24:
 561               	/* epilogue start */
 562               	.LM82:
 563 01c8 0895      		ret
 564               	.LFE22:
 566               	.global	SPI_EEPROM_readBytes
 568               	SPI_EEPROM_readBytes:
 569               	.LFB23:
 570               	.LM83:
 571               	.LVL25:
 572               	/* prologue: function */
 573               	/* frame size = 0 */
 574 01ca 282F      		mov r18,r24
 575               	.LM84:
 576 01cc C098      		cbi 56-32,0
 577               	.LBB174:
 578               	.LBB175:
 579               	.LM85:
 580 01ce 83E0      		ldi r24,lo8(3)
 581               	.LVL26:
 582 01d0 8FB9      		out 47-32,r24
 583               	.L68:
 584               	.LM86:
 585 01d2 779B      		sbis 46-32,7
 586 01d4 00C0      		rjmp .L68
 587               	.LBE175:
 588               	.LBE174:
 589               	.LBB176:
 590               	.LBB177:
 591               	.LBB178:
 592               	.LBB179:
 593               	.LM87:
 594 01d6 9FB9      		out 47-32,r25
 595               	.LVL27:
 596               	.L69:
 597               	.LM88:
 598 01d8 779B      		sbis 46-32,7
 599 01da 00C0      		rjmp .L69
 600               	.LBE179:
 601               	.LBE178:
 602               	.LBB180:
 603               	.LBB181:
 604               	.LM89:
 605 01dc 2FB9      		out 47-32,r18
 606               	.L70:
 607               	.LM90:
 608 01de 779B      		sbis 46-32,7
 609 01e0 00C0      		rjmp .L70
 610 01e2 FB01      		movw r30,r22
 611               	.LVL28:
 612 01e4 90E0      		ldi r25,lo8(0)
 613               	.LVL29:
 614               	.LBE181:
 615               	.LBE180:
 616               	.LBE177:
 617               	.LBE176:
 618               	.LBB182:
 619               	.LBB183:
 620               	.LM91:
 621 01e6 2FEF      		ldi r18,lo8(-1)
 622               	.LVL30:
 623 01e8 00C0      		rjmp .L71
 624               	.L73:
 625 01ea 2FB9      		out 47-32,r18
 626               	.L72:
 627               	.LM92:
 628 01ec 779B      		sbis 46-32,7
 629 01ee 00C0      		rjmp .L72
 630               	.LM93:
 631 01f0 8FB1      		in r24,47-32
 632 01f2 8193      		st Z+,r24
 633               	.LM94:
 634 01f4 9F5F      		subi r25,lo8(-(1))
 635               	.L71:
 636 01f6 9417      		cp r25,r20
 637 01f8 00F0      		brlo .L73
 638               	.LBE183:
 639               	.LBE182:
 640               	.LM95:
 641 01fa C09A      		sbi 56-32,0
 642               	/* epilogue start */
 643               	.LM96:
 644 01fc 0895      		ret
 645               	.LFE23:
 647               	.global	SPI_EEPROM_enableWrite
 649               	SPI_EEPROM_enableWrite:
 650               	.LFB24:
 651               	.LM97:
 652               	/* prologue: function */
 653               	/* frame size = 0 */
 654               	.LM98:
 655 01fe C098      		cbi 56-32,0
 656               	.LBB184:
 657               	.LBB185:
 658               	.LM99:
 659 0200 86E0      		ldi r24,lo8(6)
 660 0202 8FB9      		out 47-32,r24
 661               	.L80:
 662               	.LM100:
 663 0204 779B      		sbis 46-32,7
 664 0206 00C0      		rjmp .L80
 665               	.LBE185:
 666               	.LBE184:
 667               	.LM101:
 668 0208 C09A      		sbi 56-32,0
 669               	/* epilogue start */
 670               	.LM102:
 671 020a 0895      		ret
 672               	.LFE24:
 674               	.global	SPI_EEPROM_disableWrite
 676               	SPI_EEPROM_disableWrite:
 677               	.LFB25:
 678               	.LM103:
 679               	/* prologue: function */
 680               	/* frame size = 0 */
 681               	.LM104:
 682 020c C098      		cbi 56-32,0
 683               	.LBB186:
 684               	.LBB187:
 685               	.LM105:
 686 020e 84E0      		ldi r24,lo8(4)
 687 0210 8FB9      		out 47-32,r24
 688               	.L84:
 689               	.LM106:
 690 0212 779B      		sbis 46-32,7
 691 0214 00C0      		rjmp .L84
 692               	.LBE187:
 693               	.LBE186:
 694               	.LM107:
 695 0216 C09A      		sbi 56-32,0
 696               	/* epilogue start */
 697               	.LM108:
 698 0218 0895      		ret
 699               	.LFE25:
 701               	.global	SPI_EEPROM_writeByte
 703               	SPI_EEPROM_writeByte:
 704               	.LFB26:
 705               	.LM109:
 706               	.LVL31:
 707               	/* prologue: function */
 708               	/* frame size = 0 */
 709 021a 482F      		mov r20,r24
 710               	.LBB188:
 711               	.LBB189:
 712               	.LBB190:
 713               	.LBB191:
 714               	.LM110:
 715 021c 35E0      		ldi r19,lo8(5)
 716               	.LBE191:
 717               	.LBE190:
 718               	.LBB193:
 719               	.LBB194:
 720               	.LBB195:
 721               	.LBB196:
 722 021e 2FEF      		ldi r18,lo8(-1)
 723               	.LVL32:
 724               	.L90:
 725               	.LBE196:
 726               	.LBE195:
 727               	.LBE194:
 728               	.LBE193:
 729               	.LM111:
 730 0220 C098      		cbi 56-32,0
 731               	.LBB200:
 732               	.LBB192:
 733               	.LM112:
 734 0222 3FB9      		out 47-32,r19
 735               	.L88:
 736               	.LM113:
 737 0224 779B      		sbis 46-32,7
 738 0226 00C0      		rjmp .L88
 739               	.LBE192:
 740               	.LBE200:
 741               	.LBB201:
 742               	.LBB199:
 743               	.LBB198:
 744               	.LBB197:
 745               	.LM114:
 746 0228 2FB9      		out 47-32,r18
 747               	.L89:
 748               	.LM115:
 749 022a 779B      		sbis 46-32,7
 750 022c 00C0      		rjmp .L89
 751               	.LBE197:
 752               	.LBE198:
 753               	.LM116:
 754 022e 8FB1      		in r24,47-32
 755               	.LBE199:
 756               	.LBE201:
 757               	.LM117:
 758 0230 C09A      		sbi 56-32,0
 759               	.LBE189:
 760               	.LBE188:
 761               	.LM118:
 762 0232 80FD      		sbrc r24,0
 763 0234 00C0      		rjmp .L90
 764               	.LBB202:
 765               	.LBB203:
 766               	.LM119:
 767 0236 C098      		cbi 56-32,0
 768               	.LBB204:
 769               	.LBB205:
 770               	.LM120:
 771 0238 86E0      		ldi r24,lo8(6)
 772               	.LVL33:
 773 023a 8FB9      		out 47-32,r24
 774               	.L91:
 775               	.LM121:
 776 023c 779B      		sbis 46-32,7
 777 023e 00C0      		rjmp .L91
 778               	.LBE205:
 779               	.LBE204:
 780               	.LM122:
 781 0240 C09A      		sbi 56-32,0
 782               	.LBE203:
 783               	.LBE202:
 784               	.LM123:
 785 0242 C098      		cbi 56-32,0
 786               	.LBB206:
 787               	.LBB207:
 788               	.LM124:
 789 0244 82E0      		ldi r24,lo8(2)
 790 0246 8FB9      		out 47-32,r24
 791               	.L92:
 792               	.LM125:
 793 0248 779B      		sbis 46-32,7
 794 024a 00C0      		rjmp .L92
 795               	.LBE207:
 796               	.LBE206:
 797               	.LBB208:
 798               	.LBB209:
 799               	.LBB210:
 800               	.LBB211:
 801               	.LM126:
 802 024c 9FB9      		out 47-32,r25
 803               	.LVL34:
 804               	.L93:
 805               	.LM127:
 806 024e 779B      		sbis 46-32,7
 807 0250 00C0      		rjmp .L93
 808               	.LBE211:
 809               	.LBE210:
 810               	.LBB212:
 811               	.LBB213:
 812               	.LM128:
 813 0252 4FB9      		out 47-32,r20
 814               	.L94:
 815               	.LM129:
 816 0254 779B      		sbis 46-32,7
 817 0256 00C0      		rjmp .L94
 818               	.LBE213:
 819               	.LBE212:
 820               	.LBE209:
 821               	.LBE208:
 822               	.LBB214:
 823               	.LBB215:
 824               	.LM130:
 825 0258 6FB9      		out 47-32,r22
 826               	.L95:
 827               	.LM131:
 828 025a 779B      		sbis 46-32,7
 829 025c 00C0      		rjmp .L95
 830               	.LBE215:
 831               	.LBE214:
 832               	.LM132:
 833 025e C09A      		sbi 56-32,0
 834               	/* epilogue start */
 835               	.LM133:
 836 0260 0895      		ret
 837               	.LFE26:
 839               	.global	SPI_EEPROM_writeBytes
 841               	SPI_EEPROM_writeBytes:
 842               	.LFB27:
 843               	.LM134:
 844               	.LVL35:
 845               	/* prologue: function */
 846               	/* frame size = 0 */
 847 0262 582F      		mov r21,r24
 848               	.LBB216:
 849               	.LBB217:
 850               	.LBB218:
 851               	.LBB219:
 852               	.LM135:
 853 0264 35E0      		ldi r19,lo8(5)
 854               	.LBE219:
 855               	.LBE218:
 856               	.LBB221:
 857               	.LBB222:
 858               	.LBB223:
 859               	.LBB224:
 860 0266 2FEF      		ldi r18,lo8(-1)
 861               	.LVL36:
 862               	.L108:
 863               	.LBE224:
 864               	.LBE223:
 865               	.LBE222:
 866               	.LBE221:
 867               	.LM136:
 868 0268 C098      		cbi 56-32,0
 869               	.LBB228:
 870               	.LBB220:
 871               	.LM137:
 872 026a 3FB9      		out 47-32,r19
 873               	.L106:
 874               	.LM138:
 875 026c 779B      		sbis 46-32,7
 876 026e 00C0      		rjmp .L106
 877               	.LBE220:
 878               	.LBE228:
 879               	.LBB229:
 880               	.LBB227:
 881               	.LBB226:
 882               	.LBB225:
 883               	.LM139:
 884 0270 2FB9      		out 47-32,r18
 885               	.L107:
 886               	.LM140:
 887 0272 779B      		sbis 46-32,7
 888 0274 00C0      		rjmp .L107
 889               	.LBE225:
 890               	.LBE226:
 891               	.LM141:
 892 0276 8FB1      		in r24,47-32
 893               	.LBE227:
 894               	.LBE229:
 895               	.LM142:
 896 0278 C09A      		sbi 56-32,0
 897               	.LBE217:
 898               	.LBE216:
 899               	.LM143:
 900 027a 80FD      		sbrc r24,0
 901 027c 00C0      		rjmp .L108
 902               	.LBB230:
 903               	.LBB231:
 904               	.LM144:
 905 027e C098      		cbi 56-32,0
 906               	.LBB232:
 907               	.LBB233:
 908               	.LM145:
 909 0280 86E0      		ldi r24,lo8(6)
 910               	.LVL37:
 911 0282 8FB9      		out 47-32,r24
 912               	.L109:
 913               	.LM146:
 914 0284 779B      		sbis 46-32,7
 915 0286 00C0      		rjmp .L109
 916               	.LBE233:
 917               	.LBE232:
 918               	.LM147:
 919 0288 C09A      		sbi 56-32,0
 920               	.LBE231:
 921               	.LBE230:
 922               	.LM148:
 923 028a C098      		cbi 56-32,0
 924               	.LBB234:
 925               	.LBB235:
 926               	.LM149:
 927 028c 82E0      		ldi r24,lo8(2)
 928 028e 8FB9      		out 47-32,r24
 929               	.L110:
 930               	.LM150:
 931 0290 779B      		sbis 46-32,7
 932 0292 00C0      		rjmp .L110
 933               	.LBE235:
 934               	.LBE234:
 935               	.LBB236:
 936               	.LBB237:
 937               	.LBB238:
 938               	.LBB239:
 939               	.LM151:
 940 0294 9FB9      		out 47-32,r25
 941               	.LVL38:
 942               	.L111:
 943               	.LM152:
 944 0296 779B      		sbis 46-32,7
 945 0298 00C0      		rjmp .L111
 946               	.LBE239:
 947               	.LBE238:
 948               	.LBB240:
 949               	.LBB241:
 950               	.LM153:
 951 029a 5FB9      		out 47-32,r21
 952               	.L112:
 953               	.LM154:
 954 029c 779B      		sbis 46-32,7
 955 029e 00C0      		rjmp .L112
 956 02a0 FB01      		movw r30,r22
 957               	.LVL39:
 958 02a2 90E0      		ldi r25,lo8(0)
 959               	.LVL40:
 960 02a4 00C0      		rjmp .L113
 961               	.L115:
 962               	.LBE241:
 963               	.LBE240:
 964               	.LBE237:
 965               	.LBE236:
 966               	.LBB242:
 967               	.LBB243:
 968               	.LM155:
 969 02a6 8081      		ld r24,Z
 970 02a8 8FB9      		out 47-32,r24
 971               	.L114:
 972               	.LM156:
 973 02aa 779B      		sbis 46-32,7
 974 02ac 00C0      		rjmp .L114
 975               	.LM157:
 976 02ae 9F5F      		subi r25,lo8(-(1))
 977 02b0 3196      		adiw r30,1
 978               	.L113:
 979 02b2 9417      		cp r25,r20
 980 02b4 00F0      		brlo .L115
 981               	.LBE243:
 982               	.LBE242:
 983               	.LM158:
 984 02b6 C09A      		sbi 56-32,0
 985               	/* epilogue start */
 986               	.LM159:
 987 02b8 0895      		ret
 988               	.LFE27:
 990               	.global	SPI_EEPROM_getStatus
 992               	SPI_EEPROM_getStatus:
 993               	.LFB28:
 994               	.LM160:
 995               	/* prologue: function */
 996               	/* frame size = 0 */
 997               	.LM161:
 998 02ba C098      		cbi 56-32,0
 999               	.LBB244:
 1000               	.LBB245:
 1001               	.LM162:
 1002 02bc 85E0      		ldi r24,lo8(5)
 1003 02be 8FB9      		out 47-32,r24
 1004               	.L126:
 1005               	.LM163:
 1006 02c0 779B      		sbis 46-32,7
 1007 02c2 00C0      		rjmp .L126
 1008               	.LBE245:
 1009               	.LBE244:
 1010               	.LBB246:
 1011               	.LBB247:
 1012               	.LBB248:
 1013               	.LBB249:
 1014               	.LM164:
 1015 02c4 8FEF      		ldi r24,lo8(-1)
 1016 02c6 8FB9      		out 47-32,r24
 1017               	.L127:
 1018               	.LM165:
 1019 02c8 779B      		sbis 46-32,7
 1020 02ca 00C0      		rjmp .L127
 1021               	.LBE249:
 1022               	.LBE248:
 1023               	.LM166:
 1024 02cc 8FB1      		in r24,47-32
 1025               	.LVL41:
 1026               	.LBE247:
 1027               	.LBE246:
 1028               	.LM167:
 1029 02ce C09A      		sbi 56-32,0
 1030               	.LVL42:
 1031               	/* epilogue start */
 1032               	.LM168:
 1033 02d0 0895      		ret
 1034               	.LFE28:
 1036               	.global	outputExt
 1038               	outputExt:
 1039               	.LFB29:
 1040               	.LM169:
 1041               	/* prologue: function */
 1042               	/* frame size = 0 */
 1043               	.LM170:
 1044 02d2 8091 0000 		lds r24,externalPort
 1045               	.LBB250:
 1046               	.LBB251:
 1047               	.LM171:
 1048 02d6 8FB9      		out 47-32,r24
 1049               	.L132:
 1050               	.LM172:
 1051 02d8 779B      		sbis 46-32,7
 1052 02da 00C0      		rjmp .L132
 1053               	.LBE251:
 1054               	.LBE250:
 1055               	.LM173:
 1056 02dc 949A      		sbi 50-32,4
 1057               	.LM174:
 1058               	/* #APP */
 1059               	 ;  290 "../../library/RP6control/RP6ControlLib.c" 1
 1060 02de 0000      		nop
 1061               		
 1062               	 ;  0 "" 2
 1063               	.LM175:
 1064               	 ;  291 "../../library/RP6control/RP6ControlLib.c" 1
 1065 02e0 0000      		nop
 1066               		
 1067               	 ;  0 "" 2
 1068               	.LM176:
 1069               	/* #NOAPP */
 1070 02e2 9498      		cbi 50-32,4
 1071               	/* epilogue start */
 1072               	.LM177:
 1073 02e4 0895      		ret
 1074               	.LFE29:
 1076               	.global	setLEDs
 1078               	setLEDs:
 1079               	.LFB30:
 1080               	.LM178:
 1081               	.LVL43:
 1082               	/* prologue: function */
 1083               	/* frame size = 0 */
 1084               	.LM179:
 1085 02e6 8F70      		andi r24,lo8(15)
 1086               	.LVL44:
 1087 02e8 9091 0000 		lds r25,externalPort
 1088 02ec 907F      		andi r25,lo8(-16)
 1089 02ee 982B      		or r25,r24
 1090 02f0 9093 0000 		sts externalPort,r25
 1091               	.LBB252:
 1092               	.LBB253:
 1093               	.LBB254:
 1094               	.LBB255:
 1095               	.LM180:
 1096 02f4 9FB9      		out 47-32,r25
 1097               	.L136:
 1098               	.LM181:
 1099 02f6 779B      		sbis 46-32,7
 1100 02f8 00C0      		rjmp .L136
 1101               	.LBE255:
 1102               	.LBE254:
 1103               	.LM182:
 1104 02fa 949A      		sbi 50-32,4
 1105               	.LM183:
 1106               	/* #APP */
 1107               	 ;  290 "../../library/RP6control/RP6ControlLib.c" 1
 1108 02fc 0000      		nop
 1109               		
 1110               	 ;  0 "" 2
 1111               	.LM184:
 1112               	 ;  291 "../../library/RP6control/RP6ControlLib.c" 1
 1113 02fe 0000      		nop
 1114               		
 1115               	 ;  0 "" 2
 1116               	.LM185:
 1117               	/* #NOAPP */
 1118 0300 9498      		cbi 50-32,4
 1119               	/* epilogue start */
 1120               	.LBE253:
 1121               	.LBE252:
 1122               	.LM186:
 1123 0302 0895      		ret
 1124               	.LFE30:
 1126               	.global	setLCDD
 1128               	setLCDD:
 1129               	.LFB31:
 1130               	.LM187:
 1131               	.LVL45:
 1132               	/* prologue: function */
 1133               	/* frame size = 0 */
 1134               	.LM188:
 1135 0304 8295      		swap r24
 1136 0306 807F      		andi r24,0xf0
 1137               	.LVL46:
 1138 0308 9091 0000 		lds r25,externalPort
 1139 030c 9F70      		andi r25,lo8(15)
 1140 030e 982B      		or r25,r24
 1141 0310 9093 0000 		sts externalPort,r25
 1142               	.LBB256:
 1143               	.LBB257:
 1144               	.LBB258:
 1145               	.LBB259:
 1146               	.LM189:
 1147 0314 9FB9      		out 47-32,r25
 1148               	.L140:
 1149               	.LM190:
 1150 0316 779B      		sbis 46-32,7
 1151 0318 00C0      		rjmp .L140
 1152               	.LBE259:
 1153               	.LBE258:
 1154               	.LM191:
 1155 031a 949A      		sbi 50-32,4
 1156               	.LM192:
 1157               	/* #APP */
 1158               	 ;  290 "../../library/RP6control/RP6ControlLib.c" 1
 1159 031c 0000      		nop
 1160               		
 1161               	 ;  0 "" 2
 1162               	.LM193:
 1163               	 ;  291 "../../library/RP6control/RP6ControlLib.c" 1
 1164 031e 0000      		nop
 1165               		
 1166               	 ;  0 "" 2
 1167               	.LM194:
 1168               	/* #NOAPP */
 1169 0320 9498      		cbi 50-32,4
 1170               	.LBE257:
 1171               	.LBE256:
 1172               	.LM195:
 1173 0322 C49A      		sbi 56-32,4
 1174 0324 82E3      		ldi r24,lo8(50)
 1175 0326 90E0      		ldi r25,hi8(50)
 1176               	.LVL47:
 1177 0328 00C0      		rjmp .L141
 1178               	.L142:
 1179               	.LBB260:
 1180               	.LBB261:
 1181               	.LM196:
 1182               	/* #APP */
 1183               	 ;  840 "../../library/RP6control/RP6ControlLib.c" 1
 1184 032a 0000      		nop
 1185               		
 1186               	 ;  0 "" 2
 1187               	/* #NOAPP */
 1188               	.L141:
 1189 032c 0197      		sbiw r24,1
 1190 032e 2FEF      		ldi r18,hi8(-1)
 1191 0330 8F3F      		cpi r24,lo8(-1)
 1192 0332 9207      		cpc r25,r18
 1193 0334 01F4      		brne .L142
 1194               	.LBE261:
 1195               	.LBE260:
 1196               	.LM197:
 1197 0336 C498      		cbi 56-32,4
 1198               	/* epilogue start */
 1199               	.LM198:
 1200 0338 0895      		ret
 1201               	.LFE31:
 1203               	.global	write4BitLCDData
 1205               	write4BitLCDData:
 1206               	.LFB33:
 1207               	.LM199:
 1208               	.LVL48:
 1209 033a 1F93      		push r17
 1210               	/* prologue: function */
 1211               	/* frame size = 0 */
 1212 033c 182F      		mov r17,r24
 1213               	.LM200:
 1214 033e 8295      		swap r24
 1215 0340 8F70      		andi r24,0x0f
 1216               	.LVL49:
 1217 0342 0E94 0000 		call setLCDD
 1218               	.LM201:
 1219 0346 812F      		mov r24,r17
 1220 0348 0E94 0000 		call setLCDD
 1221 034c 86E9      		ldi r24,lo8(150)
 1222 034e 90E0      		ldi r25,hi8(150)
 1223               	.LVL50:
 1224 0350 00C0      		rjmp .L146
 1225               	.L147:
 1226               	.LBB262:
 1227               	.LBB263:
 1228               	.LM202:
 1229               	/* #APP */
 1230               	 ;  840 "../../library/RP6control/RP6ControlLib.c" 1
 1231 0352 0000      		nop
 1232               		
 1233               	 ;  0 "" 2
 1234               	/* #NOAPP */
 1235               	.L146:
 1236 0354 0197      		sbiw r24,1
 1237 0356 2FEF      		ldi r18,hi8(-1)
 1238 0358 8F3F      		cpi r24,lo8(-1)
 1239 035a 9207      		cpc r25,r18
 1240 035c 01F4      		brne .L147
 1241               	/* epilogue start */
 1242               	.LBE263:
 1243               	.LBE262:
 1244               	.LM203:
 1245 035e 1F91      		pop r17
 1246               	.LVL51:
 1247 0360 0895      		ret
 1248               	.LFE33:
 1250               	.global	writeLCDCommand
 1252               	writeLCDCommand:
 1253               	.LFB34:
 1254               	.LM204:
 1255               	.LVL52:
 1256               	/* prologue: function */
 1257               	/* frame size = 0 */
 1258               	.LM205:
 1259 0362 C398      		cbi 56-32,3
 1260               	.LM206:
 1261 0364 0E94 0000 		call write4BitLCDData
 1262               	.LVL53:
 1263 0368 86E9      		ldi r24,lo8(150)
 1264 036a 90E0      		ldi r25,hi8(150)
 1265               	.LVL54:
 1266 036c 00C0      		rjmp .L150
 1267               	.L151:
 1268               	.LBB264:
 1269               	.LBB265:
 1270               	.LM207:
 1271               	/* #APP */
 1272               	 ;  840 "../../library/RP6control/RP6ControlLib.c" 1
 1273 036e 0000      		nop
 1274               		
 1275               	 ;  0 "" 2
 1276               	/* #NOAPP */
 1277               	.L150:
 1278 0370 0197      		sbiw r24,1
 1279 0372 2FEF      		ldi r18,hi8(-1)
 1280 0374 8F3F      		cpi r24,lo8(-1)
 1281 0376 9207      		cpc r25,r18
 1282 0378 01F4      		brne .L151
 1283               	/* epilogue start */
 1284               	.LBE265:
 1285               	.LBE264:
 1286               	.LM208:
 1287 037a 0895      		ret
 1288               	.LFE34:
 1290               	.global	initLCD
 1292               	initLCD:
 1293               	.LFB32:
 1294               	.LM209:
 1295               	/* prologue: function */
 1296               	/* frame size = 0 */
 1297               	.LM210:
 1298 037c 83E0      		ldi r24,lo8(3)
 1299 037e 0E94 0000 		call setLCDD
 1300 0382 80E5      		ldi r24,lo8(18000)
 1301 0384 96E4      		ldi r25,hi8(18000)
 1302               	.LVL55:
 1303 0386 00C0      		rjmp .L154
 1304               	.L155:
 1305               	.LBB266:
 1306               	.LBB267:
 1307               	.LM211:
 1308               	/* #APP */
 1309               	 ;  840 "../../library/RP6control/RP6ControlLib.c" 1
 1310 0388 0000      		nop
 1311               		
 1312               	 ;  0 "" 2
 1313               	/* #NOAPP */
 1314               	.L154:
 1315 038a 0197      		sbiw r24,1
 1316 038c 2FEF      		ldi r18,hi8(-1)
 1317 038e 8F3F      		cpi r24,lo8(-1)
 1318 0390 9207      		cpc r25,r18
 1319 0392 01F4      		brne .L155
 1320               	.LBE267:
 1321               	.LBE266:
 1322               	.LM212:
 1323 0394 83E0      		ldi r24,lo8(3)
 1324               	.LVL56:
 1325 0396 0E94 0000 		call setLCDD
 1326 039a 8CE7      		ldi r24,lo8(5500)
 1327 039c 95E1      		ldi r25,hi8(5500)
 1328               	.LVL57:
 1329 039e 00C0      		rjmp .L156
 1330               	.L157:
 1331               	.LBB268:
 1332               	.LBB269:
 1333               	.LM213:
 1334               	/* #APP */
 1335               	 ;  840 "../../library/RP6control/RP6ControlLib.c" 1
 1336 03a0 0000      		nop
 1337               		
 1338               	 ;  0 "" 2
 1339               	/* #NOAPP */
 1340               	.L156:
 1341 03a2 0197      		sbiw r24,1
 1342 03a4 2FEF      		ldi r18,hi8(-1)
 1343 03a6 8F3F      		cpi r24,lo8(-1)
 1344 03a8 9207      		cpc r25,r18
 1345 03aa 01F4      		brne .L157
 1346               	.LBE269:
 1347               	.LBE268:
 1348               	.LM214:
 1349 03ac 83E0      		ldi r24,lo8(3)
 1350               	.LVL58:
 1351 03ae 0E94 0000 		call setLCDD
 1352 03b2 8CE7      		ldi r24,lo8(5500)
 1353 03b4 95E1      		ldi r25,hi8(5500)
 1354               	.LVL59:
 1355 03b6 00C0      		rjmp .L158
 1356               	.L159:
 1357               	.LBB270:
 1358               	.LBB271:
 1359               	.LM215:
 1360               	/* #APP */
 1361               	 ;  840 "../../library/RP6control/RP6ControlLib.c" 1
 1362 03b8 0000      		nop
 1363               		
 1364               	 ;  0 "" 2
 1365               	/* #NOAPP */
 1366               	.L158:
 1367 03ba 0197      		sbiw r24,1
 1368 03bc 2FEF      		ldi r18,hi8(-1)
 1369 03be 8F3F      		cpi r24,lo8(-1)
 1370 03c0 9207      		cpc r25,r18
 1371 03c2 01F4      		brne .L159
 1372               	.LBE271:
 1373               	.LBE270:
 1374               	.LM216:
 1375 03c4 82E0      		ldi r24,lo8(2)
 1376               	.LVL60:
 1377 03c6 0E94 0000 		call setLCDD
 1378 03ca 8CE7      		ldi r24,lo8(5500)
 1379 03cc 95E1      		ldi r25,hi8(5500)
 1380               	.LVL61:
 1381 03ce 00C0      		rjmp .L160
 1382               	.L161:
 1383               	.LBB272:
 1384               	.LBB273:
 1385               	.LM217:
 1386               	/* #APP */
 1387               	 ;  840 "../../library/RP6control/RP6ControlLib.c" 1
 1388 03d0 0000      		nop
 1389               		
 1390               	 ;  0 "" 2
 1391               	/* #NOAPP */
 1392               	.L160:
 1393 03d2 0197      		sbiw r24,1
 1394 03d4 2FEF      		ldi r18,hi8(-1)
 1395 03d6 8F3F      		cpi r24,lo8(-1)
 1396 03d8 9207      		cpc r25,r18
 1397 03da 01F4      		brne .L161
 1398               	.LBE273:
 1399               	.LBE272:
 1400               	.LM218:
 1401 03dc 88E2      		ldi r24,lo8(40)
 1402               	.LVL62:
 1403 03de 0E94 0000 		call writeLCDCommand
 1404 03e2 8CE7      		ldi r24,lo8(5500)
 1405 03e4 95E1      		ldi r25,hi8(5500)
 1406               	.LVL63:
 1407 03e6 00C0      		rjmp .L162
 1408               	.L163:
 1409               	.LBB274:
 1410               	.LBB275:
 1411               	.LM219:
 1412               	/* #APP */
 1413               	 ;  840 "../../library/RP6control/RP6ControlLib.c" 1
 1414 03e8 0000      		nop
 1415               		
 1416               	 ;  0 "" 2
 1417               	/* #NOAPP */
 1418               	.L162:
 1419 03ea 0197      		sbiw r24,1
 1420 03ec 2FEF      		ldi r18,hi8(-1)
 1421 03ee 8F3F      		cpi r24,lo8(-1)
 1422 03f0 9207      		cpc r25,r18
 1423 03f2 01F4      		brne .L163
 1424               	.LBE275:
 1425               	.LBE274:
 1426               	.LM220:
 1427 03f4 88E0      		ldi r24,lo8(8)
 1428               	.LVL64:
 1429 03f6 0E94 0000 		call writeLCDCommand
 1430 03fa 8CE7      		ldi r24,lo8(5500)
 1431 03fc 95E1      		ldi r25,hi8(5500)
 1432               	.LVL65:
 1433 03fe 00C0      		rjmp .L164
 1434               	.L165:
 1435               	.LBB276:
 1436               	.LBB277:
 1437               	.LM221:
 1438               	/* #APP */
 1439               	 ;  840 "../../library/RP6control/RP6ControlLib.c" 1
 1440 0400 0000      		nop
 1441               		
 1442               	 ;  0 "" 2
 1443               	/* #NOAPP */
 1444               	.L164:
 1445 0402 0197      		sbiw r24,1
 1446 0404 2FEF      		ldi r18,hi8(-1)
 1447 0406 8F3F      		cpi r24,lo8(-1)
 1448 0408 9207      		cpc r25,r18
 1449 040a 01F4      		brne .L165
 1450               	.LBE277:
 1451               	.LBE276:
 1452               	.LM222:
 1453 040c 81E0      		ldi r24,lo8(1)
 1454               	.LVL66:
 1455 040e 0E94 0000 		call writeLCDCommand
 1456 0412 8CE7      		ldi r24,lo8(5500)
 1457 0414 95E1      		ldi r25,hi8(5500)
 1458               	.LVL67:
 1459 0416 00C0      		rjmp .L166
 1460               	.L167:
 1461               	.LBB278:
 1462               	.LBB279:
 1463               	.LM223:
 1464               	/* #APP */
 1465               	 ;  840 "../../library/RP6control/RP6ControlLib.c" 1
 1466 0418 0000      		nop
 1467               		
 1468               	 ;  0 "" 2
 1469               	/* #NOAPP */
 1470               	.L166:
 1471 041a 0197      		sbiw r24,1
 1472 041c 2FEF      		ldi r18,hi8(-1)
 1473 041e 8F3F      		cpi r24,lo8(-1)
 1474 0420 9207      		cpc r25,r18
 1475 0422 01F4      		brne .L167
 1476               	.LBE279:
 1477               	.LBE278:
 1478               	.LM224:
 1479 0424 82E0      		ldi r24,lo8(2)
 1480               	.LVL68:
 1481 0426 0E94 0000 		call writeLCDCommand
 1482 042a 8CE7      		ldi r24,lo8(5500)
 1483 042c 95E1      		ldi r25,hi8(5500)
 1484               	.LVL69:
 1485 042e 00C0      		rjmp .L168
 1486               	.L169:
 1487               	.LBB280:
 1488               	.LBB281:
 1489               	.LM225:
 1490               	/* #APP */
 1491               	 ;  840 "../../library/RP6control/RP6ControlLib.c" 1
 1492 0430 0000      		nop
 1493               		
 1494               	 ;  0 "" 2
 1495               	/* #NOAPP */
 1496               	.L168:
 1497 0432 0197      		sbiw r24,1
 1498 0434 2FEF      		ldi r18,hi8(-1)
 1499 0436 8F3F      		cpi r24,lo8(-1)
 1500 0438 9207      		cpc r25,r18
 1501 043a 01F4      		brne .L169
 1502               	.LBE281:
 1503               	.LBE280:
 1504               	.LM226:
 1505 043c 8CE0      		ldi r24,lo8(12)
 1506               	.LVL70:
 1507 043e 0E94 0000 		call writeLCDCommand
 1508 0442 8CE7      		ldi r24,lo8(5500)
 1509 0444 95E1      		ldi r25,hi8(5500)
 1510               	.LVL71:
 1511 0446 00C0      		rjmp .L170
 1512               	.L171:
 1513               	.LBB282:
 1514               	.LBB283:
 1515               	.LM227:
 1516               	/* #APP */
 1517               	 ;  840 "../../library/RP6control/RP6ControlLib.c" 1
 1518 0448 0000      		nop
 1519               		
 1520               	 ;  0 "" 2
 1521               	/* #NOAPP */
 1522               	.L170:
 1523 044a 0197      		sbiw r24,1
 1524 044c 2FEF      		ldi r18,hi8(-1)
 1525 044e 8F3F      		cpi r24,lo8(-1)
 1526 0450 9207      		cpc r25,r18
 1527 0452 01F4      		brne .L171
 1528               	/* epilogue start */
 1529               	.LBE283:
 1530               	.LBE282:
 1531               	.LM228:
 1532 0454 0895      		ret
 1533               	.LFE32:
 1535               	.global	clearLCD
 1537               	clearLCD:
 1538               	.LFB35:
 1539               	.LM229:
 1540               	/* prologue: function */
 1541               	/* frame size = 0 */
 1542               	.LM230:
 1543 0456 81E0      		ldi r24,lo8(1)
 1544 0458 0E94 0000 		call writeLCDCommand
 1545 045c 8CE7      		ldi r24,lo8(5500)
 1546 045e 95E1      		ldi r25,hi8(5500)
 1547               	.LVL72:
 1548 0460 00C0      		rjmp .L174
 1549               	.L175:
 1550               	.LBB284:
 1551               	.LBB285:
 1552               	.LM231:
 1553               	/* #APP */
 1554               	 ;  840 "../../library/RP6control/RP6ControlLib.c" 1
 1555 0462 0000      		nop
 1556               		
 1557               	 ;  0 "" 2
 1558               	/* #NOAPP */
 1559               	.L174:
 1560 0464 0197      		sbiw r24,1
 1561 0466 2FEF      		ldi r18,hi8(-1)
 1562 0468 8F3F      		cpi r24,lo8(-1)
 1563 046a 9207      		cpc r25,r18
 1564 046c 01F4      		brne .L175
 1565               	/* epilogue start */
 1566               	.LBE285:
 1567               	.LBE284:
 1568               	.LM232:
 1569 046e 0895      		ret
 1570               	.LFE35:
 1572               	.global	writeCharLCD
 1574               	writeCharLCD:
 1575               	.LFB36:
 1576               	.LM233:
 1577               	.LVL73:
 1578               	/* prologue: function */
 1579               	/* frame size = 0 */
 1580               	.LM234:
 1581 0470 C39A      		sbi 56-32,3
 1582               	.LM235:
 1583 0472 0E94 0000 		call write4BitLCDData
 1584               	.LVL74:
 1585 0476 82E3      		ldi r24,lo8(50)
 1586 0478 90E0      		ldi r25,hi8(50)
 1587               	.LVL75:
 1588 047a 00C0      		rjmp .L178
 1589               	.L179:
 1590               	.LBB286:
 1591               	.LBB287:
 1592               	.LM236:
 1593               	/* #APP */
 1594               	 ;  840 "../../library/RP6control/RP6ControlLib.c" 1
 1595 047c 0000      		nop
 1596               		
 1597               	 ;  0 "" 2
 1598               	/* #NOAPP */
 1599               	.L178:
 1600 047e 0197      		sbiw r24,1
 1601 0480 2FEF      		ldi r18,hi8(-1)
 1602 0482 8F3F      		cpi r24,lo8(-1)
 1603 0484 9207      		cpc r25,r18
 1604 0486 01F4      		brne .L179
 1605               	/* epilogue start */
 1606               	.LBE287:
 1607               	.LBE286:
 1608               	.LM237:
 1609 0488 0895      		ret
 1610               	.LFE36:
 1612               	.global	writeNStringLCD_P
 1614               	writeNStringLCD_P:
 1615               	.LFB37:
 1616               	.LM238:
 1617               	.LVL76:
 1618 048a CF93      		push r28
 1619 048c DF93      		push r29
 1620               	/* prologue: function */
 1621               	/* frame size = 0 */
 1622 048e EC01      		movw r28,r24
 1623 0490 00C0      		rjmp .L182
 1624               	.LVL77:
 1625               	.L183:
 1626               	.LM239:
 1627 0492 0E94 0000 		call writeCharLCD
 1628               	.LVL78:
 1629               	.L182:
 1630 0496 FE01      		movw r30,r28
 1631               	.LVL79:
 1632               	.LBB288:
 1633 0498 2196      		adiw r28,1
 1634               	/* #APP */
 1635               	 ;  436 "../../library/RP6control/RP6ControlLib.c" 1
 1636 049a 8491      		lpm r24, Z
 1637               		
 1638               	 ;  0 "" 2
 1639               	.LVL80:
 1640               	/* #NOAPP */
 1641               	.LBE288:
 1642 049c 8823      		tst r24
 1643 049e 01F4      		brne .L183
 1644               	/* epilogue start */
 1645               	.LM240:
 1646 04a0 DF91      		pop r29
 1647 04a2 CF91      		pop r28
 1648               	.LVL81:
 1649 04a4 0895      		ret
 1650               	.LFE37:
 1652               	.global	writeStringLCD
 1654               	writeStringLCD:
 1655               	.LFB38:
 1656               	.LM241:
 1657               	.LVL82:
 1658 04a6 CF93      		push r28
 1659 04a8 DF93      		push r29
 1660               	/* prologue: function */
 1661               	/* frame size = 0 */
 1662 04aa EC01      		movw r28,r24
 1663 04ac 00C0      		rjmp .L186
 1664               	.LVL83:
 1665               	.L187:
 1666               	.LM242:
 1667 04ae 2196      		adiw r28,1
 1668 04b0 0E94 0000 		call writeCharLCD
 1669               	.LVL84:
 1670               	.L186:
 1671               	.LM243:
 1672 04b4 8881      		ld r24,Y
 1673 04b6 8823      		tst r24
 1674 04b8 01F4      		brne .L187
 1675               	/* epilogue start */
 1676               	.LM244:
 1677 04ba DF91      		pop r29
 1678 04bc CF91      		pop r28
 1679               	.LVL85:
 1680 04be 0895      		ret
 1681               	.LFE38:
 1683               	.global	writeStringLengthLCD
 1685               	writeStringLengthLCD:
 1686               	.LFB39:
 1687               	.LM245:
 1688               	.LVL86:
 1689 04c0 1F93      		push r17
 1690 04c2 CF93      		push r28
 1691 04c4 DF93      		push r29
 1692               	/* prologue: function */
 1693               	/* frame size = 0 */
 1694 04c6 162F      		mov r17,r22
 1695               	.LM246:
 1696 04c8 EC01      		movw r28,r24
 1697 04ca C40F      		add r28,r20
 1698 04cc D11D      		adc r29,__zero_reg__
 1699               	.LVL87:
 1700 04ce 00C0      		rjmp .L190
 1701               	.LVL88:
 1702               	.L192:
 1703               	.LM247:
 1704 04d0 2196      		adiw r28,1
 1705 04d2 0E94 0000 		call writeCharLCD
 1706               	.LVL89:
 1707               	.LM248:
 1708 04d6 1150      		subi r17,lo8(-(-1))
 1709               	.LVL90:
 1710               	.L190:
 1711 04d8 8881      		ld r24,Y
 1712 04da 8823      		tst r24
 1713 04dc 01F0      		breq .L193
 1714 04de 1123      		tst r17
 1715 04e0 01F4      		brne .L192
 1716               	.L193:
 1717               	/* epilogue start */
 1718               	.LM249:
 1719 04e2 DF91      		pop r29
 1720 04e4 CF91      		pop r28
 1721               	.LVL91:
 1722 04e6 1F91      		pop r17
 1723               	.LVL92:
 1724 04e8 0895      		ret
 1725               	.LFE39:
 1727               	.global	setCursorPosLCD
 1729               	setCursorPosLCD:
 1730               	.LFB43:
 1731               	.LM250:
 1732               	.LVL93:
 1733               	/* prologue: function */
 1734               	/* frame size = 0 */
 1735               	.LM251:
 1736 04ea 6068      		ori r22,lo8(-128)
 1737               	.LVL94:
 1738               	.LM252:
 1739 04ec 8130      		cpi r24,lo8(1)
 1740 04ee 01F4      		brne .L195
 1741 04f0 605C      		subi r22,lo8(-(64))
 1742               	.L195:
 1743               	.LM253:
 1744 04f2 862F      		mov r24,r22
 1745               	.LVL95:
 1746 04f4 0E94 0000 		call writeLCDCommand
 1747               	.LVL96:
 1748               	/* epilogue start */
 1749               	.LM254:
 1750 04f8 0895      		ret
 1751               	.LFE43:
 1753               	.global	_showScreenLCD_P
 1755               	_showScreenLCD_P:
 1756               	.LFB42:
 1757               	.LM255:
 1758               	.LVL97:
 1759 04fa EF92      		push r14
 1760 04fc FF92      		push r15
 1761 04fe 0F93      		push r16
 1762 0500 1F93      		push r17
 1763               	/* prologue: function */
 1764               	/* frame size = 0 */
 1765 0502 8C01      		movw r16,r24
 1766 0504 7B01      		movw r14,r22
 1767               	.LM256:
 1768 0506 0E94 0000 		call clearLCD
 1769               	.LVL98:
 1770               	.LM257:
 1771 050a C801      		movw r24,r16
 1772 050c 0E94 0000 		call writeNStringLCD_P
 1773               	.LM258:
 1774 0510 81E0      		ldi r24,lo8(1)
 1775 0512 60E0      		ldi r22,lo8(0)
 1776 0514 0E94 0000 		call setCursorPosLCD
 1777               	.LM259:
 1778 0518 C701      		movw r24,r14
 1779 051a 0E94 0000 		call writeNStringLCD_P
 1780               	/* epilogue start */
 1781               	.LM260:
 1782 051e 1F91      		pop r17
 1783 0520 0F91      		pop r16
 1784               	.LVL99:
 1785 0522 FF90      		pop r15
 1786 0524 EF90      		pop r14
 1787               	.LVL100:
 1788 0526 0895      		ret
 1789               	.LFE42:
 1791               	.global	clearPosLCD
 1793               	clearPosLCD:
 1794               	.LFB44:
 1795               	.LM261:
 1796               	.LVL101:
 1797 0528 1F93      		push r17
 1798               	/* prologue: function */
 1799               	/* frame size = 0 */
 1800 052a 142F      		mov r17,r20
 1801               	.LM262:
 1802 052c 0E94 0000 		call setCursorPosLCD
 1803               	.LVL102:
 1804 0530 00C0      		rjmp .L200
 1805               	.L201:
 1806               	.LM263:
 1807 0532 80E2      		ldi r24,lo8(32)
 1808 0534 0E94 0000 		call writeCharLCD
 1809 0538 1150      		subi r17,lo8(-(-1))
 1810               	.L200:
 1811               	.LM264:
 1812 053a 1123      		tst r17
 1813 053c 01F4      		brne .L201
 1814               	/* epilogue start */
 1815               	.LM265:
 1816 053e 1F91      		pop r17
 1817               	.LVL103:
 1818 0540 0895      		ret
 1819               	.LFE44:
 1821               	.global	getPressedKeyNumber
 1823               	getPressedKeyNumber:
 1824               	.LFB45:
 1825               	.LM266:
 1826               	/* prologue: function */
 1827               	/* frame size = 0 */
 1828               	.LBB289:
 1829               	.LBB290:
 1830               	.LM267:
 1831 0542 369B      		sbis 38-32,6
 1832 0544 00C0      		rjmp .L204
 1833 0546 20E0      		ldi r18,lo8(0)
 1834 0548 30E0      		ldi r19,hi8(0)
 1835               	.LVL104:
 1836 054a 00C0      		rjmp .L205
 1837               	.LVL105:
 1838               	.L204:
 1839               	.LM268:
 1840 054c 81E4      		ldi r24,lo8(65)
 1841 054e 87B9      		out 39-32,r24
 1842               	.LM269:
 1843 0550 86ED      		ldi r24,lo8(-42)
 1844 0552 86B9      		out 38-32,r24
 1845               	.L206:
 1846               	.LM270:
 1847 0554 3699      		sbic 38-32,6
 1848 0556 00C0      		rjmp .L206
 1849               	.LM271:
 1850 0558 349A      		sbi 38-32,4
 1851               	.LM272:
 1852 055a 24B1      		in r18,36-32
 1853 055c 35B1      		in r19,(36)+1-32
 1854               	.LVL106:
 1855               	.LBE290:
 1856               	.LBE289:
 1857               	.LM273:
 1858 055e 83E0      		ldi r24,hi8(1020)
 1859 0560 2C3F      		cpi r18,lo8(1020)
 1860 0562 3807      		cpc r19,r24
 1861 0564 00F4      		brsh .L207
 1862               	.L205:
 1863               	.LM274:
 1864               	/* #APP */
 1865               	 ;  574 "../../library/RP6control/RP6ControlLib.c" 1
 1866 0566 0000      		nop
 1867               		
 1868               	 ;  0 "" 2
 1869               	.LM275:
 1870               	 ;  575 "../../library/RP6control/RP6ControlLib.c" 1
 1871 0568 0000      		nop
 1872               		
 1873               	 ;  0 "" 2
 1874               	.LM276:
 1875               	 ;  576 "../../library/RP6control/RP6ControlLib.c" 1
 1876 056a 0000      		nop
 1877               		
 1878               	 ;  0 "" 2
 1879               	/* #NOAPP */
 1880               	.LBB291:
 1881               	.LBB292:
 1882               	.LM277:
 1883 056c 369B      		sbis 38-32,6
 1884 056e 00C0      		rjmp .L208
 1885 0570 80E0      		ldi r24,lo8(0)
 1886 0572 90E0      		ldi r25,hi8(0)
 1887 0574 00C0      		rjmp .L209
 1888               	.L208:
 1889               	.LM278:
 1890 0576 81E4      		ldi r24,lo8(65)
 1891 0578 87B9      		out 39-32,r24
 1892               	.LM279:
 1893 057a 86ED      		ldi r24,lo8(-42)
 1894 057c 86B9      		out 38-32,r24
 1895               	.L210:
 1896               	.LM280:
 1897 057e 3699      		sbic 38-32,6
 1898 0580 00C0      		rjmp .L210
 1899               	.LM281:
 1900 0582 349A      		sbi 38-32,4
 1901               	.LM282:
 1902 0584 84B1      		in r24,36-32
 1903 0586 95B1      		in r25,(36)+1-32
 1904               	.L209:
 1905               	.LBE292:
 1906               	.LBE291:
 1907               	.LM283:
 1908 0588 280F      		add r18,r24
 1909 058a 391F      		adc r19,r25
 1910               	.LM284:
 1911 058c 3695      		lsr r19
 1912 058e 2795      		ror r18
 1913               	.LM285:
 1914 0590 2233      		cpi r18,50
 1915 0592 3105      		cpc r19,__zero_reg__
 1916 0594 00F4      		brsh .L207
 1917 0596 81E0      		ldi r24,lo8(1)
 1918 0598 0895      		ret
 1919               	.L207:
 1920               	.LM286:
 1921 059a 82E0      		ldi r24,hi8(580)
 1922 059c 2434      		cpi r18,lo8(580)
 1923 059e 3807      		cpc r19,r24
 1924 05a0 00F4      		brsh .L212
 1925 05a2 82E0      		ldi r24,lo8(2)
 1926 05a4 0895      		ret
 1927               	.L212:
 1928               	.LM287:
 1929 05a6 82E0      		ldi r24,hi8(700)
 1930 05a8 2C3B      		cpi r18,lo8(700)
 1931 05aa 3807      		cpc r19,r24
 1932 05ac 00F4      		brsh .L213
 1933 05ae 83E0      		ldi r24,lo8(3)
 1934 05b0 0895      		ret
 1935               	.L213:
 1936               	.LM288:
 1937 05b2 83E0      		ldi r24,hi8(790)
 1938 05b4 2631      		cpi r18,lo8(790)
 1939 05b6 3807      		cpc r19,r24
 1940 05b8 00F4      		brsh .L214
 1941 05ba 84E0      		ldi r24,lo8(4)
 1942 05bc 0895      		ret
 1943               	.L214:
 1944               	.LM289:
 1945 05be 2E53      		subi r18,lo8(830)
 1946 05c0 3340      		sbci r19,hi8(830)
 1947 05c2 00F0      		brlo .L215
 1948 05c4 80E0      		ldi r24,lo8(0)
 1949 05c6 0895      		ret
 1950               	.L215:
 1951 05c8 85E0      		ldi r24,lo8(5)
 1952               	.LM290:
 1953 05ca 0895      		ret
 1954               	.LFE45:
 1956               	.global	checkPressedKeyEvent
 1958               	checkPressedKeyEvent:
 1959               	.LFB46:
 1960               	.LM291:
 1961               	/* prologue: function */
 1962               	/* frame size = 0 */
 1963               	.LM292:
 1964 05cc 8091 0000 		lds r24,pressed_key.2079
 1965 05d0 8823      		tst r24
 1966 05d2 01F0      		breq .L220
 1967               	.LM293:
 1968 05d4 0E94 0000 		call getPressedKeyNumber
 1969 05d8 8823      		tst r24
 1970 05da 01F4      		brne .L224
 1971               	.L221:
 1972               	.LM294:
 1973 05dc 1092 0000 		sts pressed_key.2079,__zero_reg__
 1974               	.L224:
 1975 05e0 80E0      		ldi r24,lo8(0)
 1976 05e2 0895      		ret
 1977               	.L220:
 1978               	.LM295:
 1979 05e4 0E94 0000 		call getPressedKeyNumber
 1980 05e8 8093 0000 		sts pressed_key.2079,r24
 1981               	.LM296:
 1982 05ec 0895      		ret
 1983               	.LFE46:
 1985               	.global	checkReleasedKeyEvent
 1987               	checkReleasedKeyEvent:
 1988               	.LFB47:
 1989               	.LM297:
 1990 05ee 1F93      		push r17
 1991               	/* prologue: function */
 1992               	/* frame size = 0 */
 1993               	.LM298:
 1994 05f0 1091 0000 		lds r17,released_key.2087
 1995               	.LVL107:
 1996 05f4 1123      		tst r17
 1997 05f6 01F0      		breq .L226
 1998               	.LM299:
 1999 05f8 0E94 0000 		call getPressedKeyNumber
 2000 05fc 8823      		tst r24
 2001 05fe 01F0      		breq .L227
 2002 0600 10E0      		ldi r17,lo8(0)
 2003 0602 00C0      		rjmp .L228
 2004               	.L227:
 2005               	.LBB293:
 2006               	.LM300:
 2007 0604 1092 0000 		sts released_key.2087,__zero_reg__
 2008 0608 00C0      		rjmp .L228
 2009               	.L226:
 2010               	.LBE293:
 2011               	.LM301:
 2012 060a 0E94 0000 		call getPressedKeyNumber
 2013 060e 8093 0000 		sts released_key.2087,r24
 2014               	.L228:
 2015               	.LM302:
 2016 0612 812F      		mov r24,r17
 2017               	/* epilogue start */
 2018 0614 1F91      		pop r17
 2019               	.LVL108:
 2020 0616 0895      		ret
 2021               	.LFE47:
 2023               	.global	dischargePeakDetector
 2025               	dischargePeakDetector:
 2026               	.LFB48:
 2027               	.LM303:
 2028               	/* prologue: function */
 2029               	/* frame size = 0 */
 2030               	.LM304:
 2031 0618 D09A      		sbi 58-32,0
 2032               	.LM305:
 2033 061a D898      		cbi 59-32,0
 2034 061c 21E0      		ldi r18,lo8(1)
 2035 061e 30E0      		ldi r19,hi8(1)
 2036               	.LVL109:
 2037 0620 00C0      		rjmp .L231
 2038               	.L233:
 2039               	.LBB294:
 2040               	.LBB295:
 2041               	.LBB296:
 2042               	.LBB297:
 2043               	.LM306:
 2044 0622 1092 0000 		sts delay_timer,__zero_reg__
 2045               	.L232:
 2046               	.LM307:
 2047 0626 8091 0000 		lds r24,delay_timer
 2048 062a 90E0      		ldi r25,lo8(0)
 2049 062c 0C97      		sbiw r24,12
 2050 062e 04F0      		brlt .L232
 2051               	.L231:
 2052               	.LBE297:
 2053               	.LBE296:
 2054               	.LM308:
 2055 0630 2150      		subi r18,lo8(-(-1))
 2056 0632 3040      		sbci r19,hi8(-(-1))
 2057 0634 8FEF      		ldi r24,hi8(-1)
 2058 0636 2F3F      		cpi r18,lo8(-1)
 2059 0638 3807      		cpc r19,r24
 2060 063a 01F4      		brne .L233
 2061               	.LBE295:
 2062               	.LBE294:
 2063               	.LM309:
 2064 063c D098      		cbi 58-32,0
 2065               	/* epilogue start */
 2066               	.LM310:
 2067 063e 0895      		ret
 2068               	.LFE48:
 2070               	.global	getMicrophonePeak
 2072               	getMicrophonePeak:
 2073               	.LFB49:
 2074               	.LM311:
 2075               	/* prologue: function */
 2076               	/* frame size = 0 */
 2077               	.LBB298:
 2078               	.LBB299:
 2079               	.LM312:
 2080 0640 369B      		sbis 38-32,6
 2081 0642 00C0      		rjmp .L237
 2082 0644 40E0      		ldi r20,lo8(0)
 2083 0646 50E0      		ldi r21,hi8(0)
 2084               	.LVL110:
 2085 0648 00C0      		rjmp .L238
 2086               	.LVL111:
 2087               	.L237:
 2088               	.LM313:
 2089 064a 80E4      		ldi r24,lo8(64)
 2090 064c 87B9      		out 39-32,r24
 2091               	.LM314:
 2092 064e 86ED      		ldi r24,lo8(-42)
 2093 0650 86B9      		out 38-32,r24
 2094               	.L239:
 2095               	.LM315:
 2096 0652 3699      		sbic 38-32,6
 2097 0654 00C0      		rjmp .L239
 2098               	.LM316:
 2099 0656 349A      		sbi 38-32,4
 2100               	.LM317:
 2101 0658 44B1      		in r20,36-32
 2102 065a 55B1      		in r21,(36)+1-32
 2103               	.LVL112:
 2104               	.LBE299:
 2105               	.LBE298:
 2106               	.LM318:
 2107 065c 4530      		cpi r20,5
 2108 065e 5105      		cpc r21,__zero_reg__
 2109 0660 00F0      		brlo .L238
 2110               	.LBB300:
 2111               	.LBB301:
 2112               	.LM319:
 2113 0662 D09A      		sbi 58-32,0
 2114               	.LM320:
 2115 0664 D898      		cbi 59-32,0
 2116 0666 21E0      		ldi r18,lo8(1)
 2117 0668 30E0      		ldi r19,hi8(1)
 2118               	.LVL113:
 2119 066a 00C0      		rjmp .L240
 2120               	.L242:
 2121               	.LBB302:
 2122               	.LBB303:
 2123               	.LBB304:
 2124               	.LBB305:
 2125               	.LM321:
 2126 066c 1092 0000 		sts delay_timer,__zero_reg__
 2127               	.L241:
 2128               	.LM322:
 2129 0670 8091 0000 		lds r24,delay_timer
 2130 0674 90E0      		ldi r25,lo8(0)
 2131 0676 0C97      		sbiw r24,12
 2132 0678 04F0      		brlt .L241
 2133               	.L240:
 2134               	.LBE305:
 2135               	.LBE304:
 2136               	.LM323:
 2137 067a 2150      		subi r18,lo8(-(-1))
 2138 067c 3040      		sbci r19,hi8(-(-1))
 2139 067e 8FEF      		ldi r24,hi8(-1)
 2140 0680 2F3F      		cpi r18,lo8(-1)
 2141 0682 3807      		cpc r19,r24
 2142 0684 01F4      		brne .L242
 2143               	.LBE303:
 2144               	.LBE302:
 2145               	.LM324:
 2146 0686 D098      		cbi 58-32,0
 2147               	.L238:
 2148               	.LBE301:
 2149               	.LBE300:
 2150               	.LM325:
 2151 0688 CA01      		movw r24,r20
 2152               	.LVL114:
 2153               	/* epilogue start */
 2154 068a 0895      		ret
 2155               	.LFE49:
 2157               	.global	__vector_10
 2159               	__vector_10:
 2160               	.LFB50:
 2161               	.LM326:
 2162 068c 1F92      		push __zero_reg__
 2163 068e 0F92      		push r0
 2164 0690 0FB6      		in r0,__SREG__
 2165 0692 0F92      		push r0
 2166 0694 1124      		clr __zero_reg__
 2167 0696 8F93      		push r24
 2168 0698 9F93      		push r25
 2169               	/* prologue: Signal */
 2170               	/* frame size = 0 */
 2171               	.LM327:
 2172 069a 8091 0000 		lds r24,timer
 2173 069e 9091 0000 		lds r25,(timer)+1
 2174 06a2 0196      		adiw r24,1
 2175 06a4 9093 0000 		sts (timer)+1,r25
 2176 06a8 8093 0000 		sts timer,r24
 2177               	.LM328:
 2178 06ac 8091 0000 		lds r24,delay_timer
 2179 06b0 8F5F      		subi r24,lo8(-(1))
 2180 06b2 8093 0000 		sts delay_timer,r24
 2181               	.LM329:
 2182 06b6 8091 0000 		lds r24,ms_timer
 2183 06ba 8F5F      		subi r24,lo8(-(1))
 2184 06bc 8093 0000 		sts ms_timer,r24
 2185 06c0 8150      		subi r24,lo8(-(-1))
 2186 06c2 8A30      		cpi r24,lo8(10)
 2187 06c4 00F4      		brsh .+2
 2188 06c6 00C0      		rjmp .L258
 2189               	.LM330:
 2190 06c8 8091 0000 		lds r24,stopwatches
 2191 06cc 80FF      		sbrs r24,0
 2192 06ce 00C0      		rjmp .L248
 2193               	.LM331:
 2194 06d0 8091 0000 		lds r24,stopwatches+1
 2195 06d4 9091 0000 		lds r25,(stopwatches+1)+1
 2196 06d8 0196      		adiw r24,1
 2197 06da 9093 0000 		sts (stopwatches+1)+1,r25
 2198 06de 8093 0000 		sts stopwatches+1,r24
 2199               	.L248:
 2200               	.LM332:
 2201 06e2 8091 0000 		lds r24,stopwatches
 2202 06e6 81FF      		sbrs r24,1
 2203 06e8 00C0      		rjmp .L249
 2204               	.LM333:
 2205 06ea 8091 0000 		lds r24,stopwatches+3
 2206 06ee 9091 0000 		lds r25,(stopwatches+3)+1
 2207 06f2 0196      		adiw r24,1
 2208 06f4 9093 0000 		sts (stopwatches+3)+1,r25
 2209 06f8 8093 0000 		sts stopwatches+3,r24
 2210               	.L249:
 2211               	.LM334:
 2212 06fc 8091 0000 		lds r24,stopwatches
 2213 0700 82FF      		sbrs r24,2
 2214 0702 00C0      		rjmp .L250
 2215               	.LM335:
 2216 0704 8091 0000 		lds r24,stopwatches+5
 2217 0708 9091 0000 		lds r25,(stopwatches+5)+1
 2218 070c 0196      		adiw r24,1
 2219 070e 9093 0000 		sts (stopwatches+5)+1,r25
 2220 0712 8093 0000 		sts stopwatches+5,r24
 2221               	.L250:
 2222               	.LM336:
 2223 0716 8091 0000 		lds r24,stopwatches
 2224 071a 83FF      		sbrs r24,3
 2225 071c 00C0      		rjmp .L251
 2226               	.LM337:
 2227 071e 8091 0000 		lds r24,stopwatches+7
 2228 0722 9091 0000 		lds r25,(stopwatches+7)+1
 2229 0726 0196      		adiw r24,1
 2230 0728 9093 0000 		sts (stopwatches+7)+1,r25
 2231 072c 8093 0000 		sts stopwatches+7,r24
 2232               	.L251:
 2233               	.LM338:
 2234 0730 8091 0000 		lds r24,stopwatches
 2235 0734 84FF      		sbrs r24,4
 2236 0736 00C0      		rjmp .L252
 2237               	.LM339:
 2238 0738 8091 0000 		lds r24,stopwatches+9
 2239 073c 9091 0000 		lds r25,(stopwatches+9)+1
 2240 0740 0196      		adiw r24,1
 2241 0742 9093 0000 		sts (stopwatches+9)+1,r25
 2242 0746 8093 0000 		sts stopwatches+9,r24
 2243               	.L252:
 2244               	.LM340:
 2245 074a 8091 0000 		lds r24,stopwatches
 2246 074e 85FF      		sbrs r24,5
 2247 0750 00C0      		rjmp .L253
 2248               	.LM341:
 2249 0752 8091 0000 		lds r24,stopwatches+11
 2250 0756 9091 0000 		lds r25,(stopwatches+11)+1
 2251 075a 0196      		adiw r24,1
 2252 075c 9093 0000 		sts (stopwatches+11)+1,r25
 2253 0760 8093 0000 		sts stopwatches+11,r24
 2254               	.L253:
 2255               	.LM342:
 2256 0764 8091 0000 		lds r24,stopwatches
 2257 0768 86FF      		sbrs r24,6
 2258 076a 00C0      		rjmp .L254
 2259               	.LM343:
 2260 076c 8091 0000 		lds r24,stopwatches+13
 2261 0770 9091 0000 		lds r25,(stopwatches+13)+1
 2262 0774 0196      		adiw r24,1
 2263 0776 9093 0000 		sts (stopwatches+13)+1,r25
 2264 077a 8093 0000 		sts stopwatches+13,r24
 2265               	.L254:
 2266               	.LM344:
 2267 077e 8091 0000 		lds r24,stopwatches
 2268 0782 87FF      		sbrs r24,7
 2269 0784 00C0      		rjmp .L255
 2270               	.LM345:
 2271 0786 8091 0000 		lds r24,stopwatches+15
 2272 078a 9091 0000 		lds r25,(stopwatches+15)+1
 2273 078e 0196      		adiw r24,1
 2274 0790 9093 0000 		sts (stopwatches+15)+1,r25
 2275 0794 8093 0000 		sts stopwatches+15,r24
 2276               	.L255:
 2277               	.LM346:
 2278 0798 8091 0000 		lds r24,controlStatus
 2279 079c 80FF      		sbrs r24,0
 2280 079e 00C0      		rjmp .L256
 2281               	.LM347:
 2282 07a0 8091 0000 		lds r24,sound_timer
 2283 07a4 9091 0000 		lds r25,(sound_timer)+1
 2284 07a8 892B      		or r24,r25
 2285 07aa 01F4      		brne .L257
 2286               	.LM348:
 2287 07ac 15BC      		out 69-32,__zero_reg__
 2288               	.LM349:
 2289 07ae 8091 0000 		lds r24,controlStatus
 2290 07b2 8E7F      		andi r24,lo8(-2)
 2291 07b4 8093 0000 		sts controlStatus,r24
 2292 07b8 00C0      		rjmp .L256
 2293               	.L257:
 2294               	.LM350:
 2295 07ba 8091 0000 		lds r24,sound_timer
 2296 07be 9091 0000 		lds r25,(sound_timer)+1
 2297 07c2 0197      		sbiw r24,1
 2298 07c4 9093 0000 		sts (sound_timer)+1,r25
 2299 07c8 8093 0000 		sts sound_timer,r24
 2300               	.L256:
 2301               	.LM351:
 2302 07cc 1092 0000 		sts ms_timer,__zero_reg__
 2303               	.L258:
 2304               	/* epilogue start */
 2305               	.LM352:
 2306 07d0 9F91      		pop r25
 2307 07d2 8F91      		pop r24
 2308 07d4 0F90      		pop r0
 2309 07d6 0FBE      		out __SREG__,r0
 2310 07d8 0F90      		pop r0
 2311 07da 1F90      		pop __zero_reg__
 2312 07dc 1895      		reti
 2313               	.LFE50:
 2315               	.global	beep
 2317               	beep:
 2318               	.LFB51:
 2319               	.LM353:
 2320               	.LVL115:
 2321               	/* prologue: function */
 2322               	/* frame size = 0 */
 2323               	.LM354:
 2324 07de 9091 0000 		lds r25,controlStatus
 2325 07e2 9160      		ori r25,lo8(1)
 2326 07e4 9093 0000 		sts controlStatus,r25
 2327               	.LM355:
 2328 07e8 7093 0000 		sts (sound_timer)+1,r23
 2329 07ec 6093 0000 		sts sound_timer,r22
 2330               	.LM356:
 2331 07f0 8095      		com r24
 2332               	.LVL116:
 2333 07f2 83BD      		out 67-32,r24
 2334               	.LM357:
 2335 07f4 8EE1      		ldi r24,lo8(30)
 2336 07f6 85BD      		out 69-32,r24
 2337               	/* epilogue start */
 2338               	.LM358:
 2339 07f8 0895      		ret
 2340               	.LFE51:
 2342               	.global	setBeeperPitch
 2344               	setBeeperPitch:
 2345               	.LFB52:
 2346               	.LM359:
 2347               	.LVL117:
 2348               	/* prologue: function */
 2349               	/* frame size = 0 */
 2350               	.LM360:
 2351 07fa 9091 0000 		lds r25,controlStatus
 2352 07fe 9E7F      		andi r25,lo8(-2)
 2353 0800 9093 0000 		sts controlStatus,r25
 2354               	.LM361:
 2355 0804 982F      		mov r25,r24
 2356 0806 9095      		com r25
 2357 0808 93BD      		out 67-32,r25
 2358               	.LM362:
 2359 080a 8823      		tst r24
 2360 080c 01F0      		breq .L262
 2361               	.LM363:
 2362 080e 8EE1      		ldi r24,lo8(30)
 2363               	.LVL118:
 2364 0810 85BD      		out 69-32,r24
 2365 0812 0895      		ret
 2366               	.LVL119:
 2367               	.L262:
 2368               	.LM364:
 2369 0814 15BC      		out 69-32,__zero_reg__
 2370 0816 0895      		ret
 2371               	.LFE52:
 2373               	.global	sleep
 2375               	sleep:
 2376               	.LFB53:
 2377               	.LM365:
 2378               	.LVL120:
 2379               	/* prologue: function */
 2380               	/* frame size = 0 */
 2381               	.LM366:
 2382 0818 1092 0000 		sts delay_timer,__zero_reg__
 2383               	.LM367:
 2384 081c 282F      		mov r18,r24
 2385 081e 30E0      		ldi r19,lo8(0)
 2386 0820 2F5F      		subi r18,lo8(-(1))
 2387 0822 3F4F      		sbci r19,hi8(-(1))
 2388               	.L266:
 2389 0824 8091 0000 		lds r24,delay_timer
 2390               	.LVL121:
 2391 0828 90E0      		ldi r25,lo8(0)
 2392 082a 2817      		cp r18,r24
 2393 082c 3907      		cpc r19,r25
 2394 082e 04F4      		brge .L266
 2395               	/* epilogue start */
 2396               	.LM368:
 2397 0830 0895      		ret
 2398               	.LFE53:
 2400               	.global	mSleep
 2402               	mSleep:
 2403               	.LFB54:
 2404               	.LM369:
 2405               	.LVL122:
 2406               	/* prologue: function */
 2407               	/* frame size = 0 */
 2408 0832 9C01      		movw r18,r24
 2409 0834 00C0      		rjmp .L270
 2410               	.LVL123:
 2411               	.L272:
 2412               	.LBB306:
 2413               	.LBB307:
 2414               	.LM370:
 2415 0836 1092 0000 		sts delay_timer,__zero_reg__
 2416               	.L271:
 2417               	.LM371:
 2418 083a 8091 0000 		lds r24,delay_timer
 2419 083e 90E0      		ldi r25,lo8(0)
 2420 0840 0C97      		sbiw r24,12
 2421 0842 04F0      		brlt .L271
 2422 0844 2150      		subi r18,lo8(-(-1))
 2423 0846 3040      		sbci r19,hi8(-(-1))
 2424               	.LVL124:
 2425               	.L270:
 2426               	.LBE307:
 2427               	.LBE306:
 2428               	.LM372:
 2429 0848 2115      		cp r18,__zero_reg__
 2430 084a 3105      		cpc r19,__zero_reg__
 2431 084c 01F4      		brne .L272
 2432               	/* epilogue start */
 2433               	.LM373:
 2434 084e 0895      		ret
 2435               	.LFE54:
 2437               	.global	delayCycles
 2439               	delayCycles:
 2440               	.LFB55:
 2441               	.LM374:
 2442               	.LVL125:
 2443               	/* prologue: function */
 2444               	/* frame size = 0 */
 2445 0850 00C0      		rjmp .L276
 2446               	.L277:
 2447               	.LM375:
 2448               	/* #APP */
 2449               	 ;  840 "../../library/RP6control/RP6ControlLib.c" 1
 2450 0852 0000      		nop
 2451               		
 2452               	 ;  0 "" 2
 2453               	/* #NOAPP */
 2454 0854 0197      		sbiw r24,1
 2455               	.LVL126:
 2456               	.L276:
 2457 0856 0097      		sbiw r24,0
 2458 0858 01F4      		brne .L277
 2459               	/* epilogue start */
 2460               	.LM376:
 2461 085a 0895      		ret
 2462               	.LFE55:
 2464               	.global	initRP6Control
 2466               	initRP6Control:
 2467               	.LFB56:
 2468               	.LM377:
 2469               	/* prologue: function */
 2470               	/* frame size = 0 */
 2471               	.LM378:
 2472 085c 1BBA      		out 59-32,__zero_reg__
 2473 085e 87E0      		ldi r24,lo8(7)
 2474 0860 88BB      		out 56-32,r24
 2475 0862 8CEF      		ldi r24,lo8(-4)
 2476 0864 85BB      		out 53-32,r24
 2477 0866 81E6      		ldi r24,lo8(97)
 2478 0868 82BB      		out 50-32,r24
 2479 086a 1ABA      		out 58-32,__zero_reg__
 2480 086c 8BEB      		ldi r24,lo8(-69)
 2481 086e 87BB      		out 55-32,r24
 2482 0870 14BA      		out 52-32,__zero_reg__
 2483 0872 82E9      		ldi r24,lo8(-110)
 2484 0874 81BB      		out 49-32,r24
 2485               	.LM379:
 2486               	/* #APP */
 2487               	 ;  870 "../../library/RP6control/RP6ControlLib.c" 1
 2488 0876 F894      		cli
 2489               	 ;  0 "" 2
 2490               	.LM380:
 2491               	/* #NOAPP */
 2492 0878 10BC      		out 64-32,__zero_reg__
 2493               	.LM381:
 2494 087a 89E1      		ldi r24,lo8(25)
 2495 087c 89B9      		out 41-32,r24
 2496               	.LM382:
 2497 087e 1BB8      		out 43-32,__zero_reg__
 2498               	.LM383:
 2499 0880 86E8      		ldi r24,lo8(-122)
 2500 0882 80BD      		out 64-32,r24
 2501               	.LM384:
 2502 0884 88E9      		ldi r24,lo8(-104)
 2503 0886 8AB9      		out 42-32,r24
 2504               	.LM385:
 2505 0888 17B8      		out 39-32,__zero_reg__
 2506               	.LM386:
 2507 088a 86E1      		ldi r24,lo8(22)
 2508 088c 86B9      		out 38-32,r24
 2509               	.LM387:
 2510 088e 10BE      		out 80-32,__zero_reg__
 2511               	.LM388:
 2512 0890 8FE0      		ldi r24,lo8(15)
 2513 0892 85BF      		out 85-32,r24
 2514               	.LM389:
 2515 0894 1BBE      		out 91-32,__zero_reg__
 2516               	.LM390:
 2517 0896 14BE      		out 84-32,__zero_reg__
 2518               	.LM391:
 2519 0898 8AE0      		ldi r24,lo8(10)
 2520 089a 83BF      		out 83-32,r24
 2521               	.LM392:
 2522 089c 87EC      		ldi r24,lo8(-57)
 2523 089e 8CBF      		out 92-32,r24
 2524               	.LM393:
 2525 08a0 15BC      		out 69-32,__zero_reg__
 2526               	.LM394:
 2527 08a2 8FEF      		ldi r24,lo8(-1)
 2528 08a4 83BD      		out 67-32,r24
 2529               	.LM395:
 2530 08a6 82E0      		ldi r24,lo8(2)
 2531 08a8 89BF      		out 89-32,r24
 2532               	.LM396:
 2533 08aa 80E5      		ldi r24,lo8(80)
 2534 08ac 8DB9      		out 45-32,r24
 2535               	.LM397:
 2536 08ae 81E0      		ldi r24,lo8(1)
 2537 08b0 8EB9      		out 46-32,r24
 2538               	.LM398:
 2539               	/* #APP */
 2540               	 ;  922 "../../library/RP6control/RP6ControlLib.c" 1
 2541 08b2 7894      		sei
 2542               	 ;  0 "" 2
 2543               	/* epilogue start */
 2544               	.LM399:
 2545               	/* #NOAPP */
 2546 08b4 0895      		ret
 2547               	.LFE56:
 2549               	.global	writeIntegerLCD
 2551               	writeIntegerLCD:
 2552               	.LFB40:
 2553               	.LM400:
 2554               	.LVL127:
 2555 08b6 0F93      		push r16
 2556 08b8 1F93      		push r17
 2557               	/* prologue: function */
 2558               	/* frame size = 0 */
 2559 08ba 462F      		mov r20,r22
 2560               	.LM401:
 2561 08bc 00E0      		ldi r16,lo8(lcd_tmp_buffer)
 2562 08be 10E0      		ldi r17,hi8(lcd_tmp_buffer)
 2563 08c0 B801      		movw r22,r16
 2564               	.LVL128:
 2565 08c2 50E0      		ldi r21,lo8(0)
 2566 08c4 0E94 0000 		call itoa
 2567               	.LVL129:
 2568               	.LM402:
 2569 08c8 C801      		movw r24,r16
 2570 08ca 0E94 0000 		call writeStringLCD
 2571               	/* epilogue start */
 2572               	.LM403:
 2573 08ce 1F91      		pop r17
 2574 08d0 0F91      		pop r16
 2575 08d2 0895      		ret
 2576               	.LFE40:
 2578               	.global	writeIntegerLengthLCD
 2580               	writeIntegerLengthLCD:
 2581               	.LFB41:
 2582               	.LM404:
 2583               	.LVL130:
 2584 08d4 EF92      		push r14
 2585 08d6 FF92      		push r15
 2586 08d8 0F93      		push r16
 2587 08da 1F93      		push r17
 2588 08dc DF93      		push r29
 2589 08de CF93      		push r28
 2590 08e0 CDB7      		in r28,__SP_L__
 2591 08e2 DEB7      		in r29,__SP_H__
 2592 08e4 6197      		sbiw r28,17
 2593 08e6 0FB6      		in __tmp_reg__,__SREG__
 2594 08e8 F894      		cli
 2595 08ea DEBF      		out __SP_H__,r29
 2596 08ec 0FBE      		out __SREG__,__tmp_reg__
 2597 08ee CDBF      		out __SP_L__,r28
 2598               	/* prologue: function */
 2599               	/* frame size = 17 */
 2600 08f0 262F      		mov r18,r22
 2601 08f2 042F      		mov r16,r20
 2602               	.LM405:
 2603 08f4 7E01      		movw r14,r28
 2604 08f6 0894      		sec
 2605 08f8 E11C      		adc r14,__zero_reg__
 2606 08fa F11C      		adc r15,__zero_reg__
 2607 08fc B701      		movw r22,r14
 2608               	.LVL131:
 2609 08fe 422F      		mov r20,r18
 2610               	.LVL132:
 2611 0900 50E0      		ldi r21,lo8(0)
 2612 0902 0E94 0000 		call itoa
 2613               	.LVL133:
 2614               	.LM406:
 2615 0906 F701      		movw r30,r14
 2616 0908 0190      		ld __tmp_reg__,Z+
 2617 090a 0020      		tst __tmp_reg__
 2618 090c 01F4      		brne .-6
 2619 090e 3197      		sbiw r30,1
 2620 0910 EE19      		sub r30,r14
 2621 0912 FF09      		sbc r31,r15
 2622 0914 102F      		mov r17,r16
 2623               	.LVL134:
 2624 0916 1E1B      		sub r17,r30
 2625               	.LM407:
 2626 0918 1116      		cp __zero_reg__,r17
 2627 091a 04F4      		brge .L284
 2628               	.L288:
 2629               	.LM408:
 2630 091c 1150      		subi r17,lo8(-(-1))
 2631 091e 80E3      		ldi r24,lo8(48)
 2632 0920 0E94 0000 		call writeCharLCD
 2633 0924 1123      		tst r17
 2634 0926 01F4      		brne .L288
 2635               	.LM409:
 2636 0928 CE01      		movw r24,r28
 2637 092a 0196      		adiw r24,1
 2638 092c 0E94 0000 		call writeStringLCD
 2639 0930 00C0      		rjmp .L287
 2640               	.L284:
 2641               	.LM410:
 2642 0932 1195      		neg r17
 2643 0934 C701      		movw r24,r14
 2644 0936 602F      		mov r22,r16
 2645 0938 412F      		mov r20,r17
 2646 093a 0E94 0000 		call writeStringLengthLCD
 2647               	.L287:
 2648               	/* epilogue start */
 2649               	.LM411:
 2650 093e 6196      		adiw r28,17
 2651 0940 0FB6      		in __tmp_reg__,__SREG__
 2652 0942 F894      		cli
 2653 0944 DEBF      		out __SP_H__,r29
 2654 0946 0FBE      		out __SREG__,__tmp_reg__
 2655 0948 CDBF      		out __SP_L__,r28
 2656 094a CF91      		pop r28
 2657 094c DF91      		pop r29
 2658 094e 1F91      		pop r17
 2659               	.LVL135:
 2660 0950 0F91      		pop r16
 2661               	.LVL136:
 2662 0952 FF90      		pop r15
 2663 0954 EF90      		pop r14
 2664 0956 0895      		ret
 2665               	.LFE41:
 2667               		.lcomm released_key.2087,1
 2668               		.lcomm pressed_key.2079,1
 2669               		.data
 2672               	INT2_eventHandler:
 2673 0000 0000      		.word	gs(INT2_event_DUMMY)
 2676               	INT1_eventHandler:
 2677 0002 0000      		.word	gs(INT1_event_DUMMY)
 2680               	INT0_eventHandler:
 2681 0004 0000      		.word	gs(INT0_event_DUMMY)
 2682               		.comm externalPort,1,1
 2683               		.comm stopwatches,17,1
 2684               		.comm timer,2,1
 2685               		.comm lcd_tmp_buffer,17,1
 2686               		.comm controlStatus,1,1
 2687               		.comm delay_timer,1,1
 2688               		.comm ms_timer,1,1
 2689               		.comm sound_timer,2,1
 3114               	.Letext0:
DEFINED SYMBOLS
                            *ABS*:0000000000000000 RP6ControlLib.c
     /tmp/ccYiTuJ5.s:2      *ABS*:000000000000003f __SREG__
     /tmp/ccYiTuJ5.s:3      *ABS*:000000000000003e __SP_H__
     /tmp/ccYiTuJ5.s:4      *ABS*:000000000000003d __SP_L__
     /tmp/ccYiTuJ5.s:5      *ABS*:0000000000000034 __CCP__
     /tmp/ccYiTuJ5.s:6      *ABS*:0000000000000000 __tmp_reg__
     /tmp/ccYiTuJ5.s:7      *ABS*:0000000000000001 __zero_reg__
     /tmp/ccYiTuJ5.s:20     .text:0000000000000000 INT0_event_DUMMY
     /tmp/ccYiTuJ5.s:32     .text:0000000000000002 INT0_setEventHandler
     /tmp/ccYiTuJ5.s:2680   .data:0000000000000004 INT0_eventHandler
     /tmp/ccYiTuJ5.s:48     .text:000000000000000c __vector_1
     /tmp/ccYiTuJ5.s:97     .text:000000000000005a INT1_event_DUMMY
     /tmp/ccYiTuJ5.s:109    .text:000000000000005c INT1_setEventHandler
     /tmp/ccYiTuJ5.s:2676   .data:0000000000000002 INT1_eventHandler
     /tmp/ccYiTuJ5.s:125    .text:0000000000000066 __vector_2
     /tmp/ccYiTuJ5.s:174    .text:00000000000000b4 INT2_event_DUMMY
     /tmp/ccYiTuJ5.s:186    .text:00000000000000b6 INT2_setEventHandler
     /tmp/ccYiTuJ5.s:2672   .data:0000000000000000 INT2_eventHandler
     /tmp/ccYiTuJ5.s:202    .text:00000000000000c0 __vector_3
     /tmp/ccYiTuJ5.s:251    .text:000000000000010e readADC
     /tmp/ccYiTuJ5.s:292    .text:000000000000012e writeSPI
     /tmp/ccYiTuJ5.s:311    .text:0000000000000136 readSPI
     /tmp/ccYiTuJ5.s:336    .text:0000000000000142 readWordSPI
     /tmp/ccYiTuJ5.s:392    .text:0000000000000164 writeWordSPI
     /tmp/ccYiTuJ5.s:426    .text:0000000000000172 writeBufferSPI
     /tmp/ccYiTuJ5.s:459    .text:000000000000018a readBufferSPI
     /tmp/ccYiTuJ5.s:494    .text:00000000000001a4 SPI_EEPROM_readByte
     /tmp/ccYiTuJ5.s:568    .text:00000000000001ca SPI_EEPROM_readBytes
     /tmp/ccYiTuJ5.s:649    .text:00000000000001fe SPI_EEPROM_enableWrite
     /tmp/ccYiTuJ5.s:676    .text:000000000000020c SPI_EEPROM_disableWrite
     /tmp/ccYiTuJ5.s:703    .text:000000000000021a SPI_EEPROM_writeByte
     /tmp/ccYiTuJ5.s:841    .text:0000000000000262 SPI_EEPROM_writeBytes
     /tmp/ccYiTuJ5.s:992    .text:00000000000002ba SPI_EEPROM_getStatus
     /tmp/ccYiTuJ5.s:1038   .text:00000000000002d2 outputExt
                            *COM*:0000000000000001 externalPort
     /tmp/ccYiTuJ5.s:1078   .text:00000000000002e6 setLEDs
     /tmp/ccYiTuJ5.s:1128   .text:0000000000000304 setLCDD
     /tmp/ccYiTuJ5.s:1205   .text:000000000000033a write4BitLCDData
     /tmp/ccYiTuJ5.s:1252   .text:0000000000000362 writeLCDCommand
     /tmp/ccYiTuJ5.s:1292   .text:000000000000037c initLCD
     /tmp/ccYiTuJ5.s:1537   .text:0000000000000456 clearLCD
     /tmp/ccYiTuJ5.s:1574   .text:0000000000000470 writeCharLCD
     /tmp/ccYiTuJ5.s:1614   .text:000000000000048a writeNStringLCD_P
     /tmp/ccYiTuJ5.s:1654   .text:00000000000004a6 writeStringLCD
     /tmp/ccYiTuJ5.s:1685   .text:00000000000004c0 writeStringLengthLCD
     /tmp/ccYiTuJ5.s:1729   .text:00000000000004ea setCursorPosLCD
     /tmp/ccYiTuJ5.s:1755   .text:00000000000004fa _showScreenLCD_P
     /tmp/ccYiTuJ5.s:1793   .text:0000000000000528 clearPosLCD
     /tmp/ccYiTuJ5.s:1823   .text:0000000000000542 getPressedKeyNumber
     /tmp/ccYiTuJ5.s:1958   .text:00000000000005cc checkPressedKeyEvent
     /tmp/ccYiTuJ5.s:2667   .bss:0000000000000001 pressed_key.2079
     /tmp/ccYiTuJ5.s:1987   .text:00000000000005ee checkReleasedKeyEvent
                             .bss:0000000000000000 released_key.2087
     /tmp/ccYiTuJ5.s:2025   .text:0000000000000618 dischargePeakDetector
                            *COM*:0000000000000001 delay_timer
     /tmp/ccYiTuJ5.s:2072   .text:0000000000000640 getMicrophonePeak
     /tmp/ccYiTuJ5.s:2159   .text:000000000000068c __vector_10
                            *COM*:0000000000000002 timer
                            *COM*:0000000000000001 ms_timer
                            *COM*:0000000000000011 stopwatches
                            *COM*:0000000000000001 controlStatus
                            *COM*:0000000000000002 sound_timer
     /tmp/ccYiTuJ5.s:2317   .text:00000000000007de beep
     /tmp/ccYiTuJ5.s:2344   .text:00000000000007fa setBeeperPitch
     /tmp/ccYiTuJ5.s:2375   .text:0000000000000818 sleep
     /tmp/ccYiTuJ5.s:2402   .text:0000000000000832 mSleep
     /tmp/ccYiTuJ5.s:2439   .text:0000000000000850 delayCycles
     /tmp/ccYiTuJ5.s:2466   .text:000000000000085c initRP6Control
     /tmp/ccYiTuJ5.s:2551   .text:00000000000008b6 writeIntegerLCD
                            *COM*:0000000000000011 lcd_tmp_buffer
     /tmp/ccYiTuJ5.s:2580   .text:00000000000008d4 writeIntegerLengthLCD

UNDEFINED SYMBOLS
__do_copy_data
__do_clear_bss
itoa
